# SymbolsHelper-Confirmed: 1.10.1 amd64
libqbscore.so.1.10 libqbscore1.10 #MINVER#
 _ZGVZNKSt8__detail11_AnyMatcherINSt7__cxx1112regex_traitsIcEELb0ELb0ELb0EEclEcE5__nul@Base 1.10.0
 _ZGVZNKSt8__detail11_AnyMatcherINSt7__cxx1112regex_traitsIcEELb0ELb0ELb1EEclEcE5__nul@Base 1.10.0
 _ZGVZNKSt8__detail11_AnyMatcherINSt7__cxx1112regex_traitsIcEELb0ELb1ELb0EEclEcE5__nul@Base 1.10.0
 _ZGVZNKSt8__detail11_AnyMatcherINSt7__cxx1112regex_traitsIcEELb0ELb1ELb1EEclEcE5__nul@Base 1.10.0
 _ZN3qbs10InstallJob11qt_metacallEN11QMetaObject4CallEiPPv@Base 1.2.1
 _ZN3qbs10InstallJob11qt_metacastEPKc@Base 1.2.1
 _ZN3qbs10InstallJob16staticMetaObjectE@Base 1.2.1
 _ZN3qbs10InstallJob7installERKSt10shared_ptrINS_8Internal15TopLevelProjectEERK5QListIS1_INS2_15ResolvedProductEEERKNS_14InstallOptionsE@Base 1.10.0
 _ZN3qbs10InstallJobC1ERKNS_8Internal6LoggerEP7QObject@Base 1.2.1
 _ZN3qbs10InstallJobC2ERKNS_8Internal6LoggerEP7QObject@Base 1.2.1
 _ZN3qbs11AbstractJob11lockProjectERKSt10shared_ptrINS_8Internal15TopLevelProjectEE@Base 1.10.0
 _ZN3qbs11AbstractJob11qt_metacallEN11QMetaObject4CallEiPPv@Base 1.2.1
 _ZN3qbs11AbstractJob11qt_metacastEPKc@Base 1.2.1
 _ZN3qbs11AbstractJob11taskStartedERK7QStringiPS0_@Base 1.2.1
 _ZN3qbs11AbstractJob12taskProgressEiPS0_@Base 1.2.1
 _ZN3qbs11AbstractJob13unlockProjectEv@Base 1.3.1
 _ZN3qbs11AbstractJob14handleFinishedEv@Base 1.2.1
 _ZN3qbs11AbstractJob16staticMetaObjectE@Base 1.2.1
 _ZN3qbs11AbstractJob17handleTaskStartedERK7QStringi@Base 1.2.1
 _ZN3qbs11AbstractJob18handleTaskProgressEi@Base 1.2.1
 _ZN3qbs11AbstractJob18totalEffortChangedEiPS0_@Base 1.2.1
 _ZN3qbs11AbstractJob24handleTotalEffortChangedEi@Base 1.2.1
 _ZN3qbs11AbstractJob6cancelEv@Base 1.2.1
 _ZN3qbs11AbstractJob8finishedEbPS0_@Base 1.2.1
 _ZN3qbs11AbstractJobC1EPNS_8Internal11InternalJobEP7QObject@Base 1.2.1
 _ZN3qbs11AbstractJobC2EPNS_8Internal11InternalJobEP7QObject@Base 1.2.1
 _ZN3qbs11AbstractJobD0Ev@Base 1.2.1
 _ZN3qbs11AbstractJobD1Ev@Base 1.2.1
 _ZN3qbs11AbstractJobD2Ev@Base 1.2.1
 _ZN3qbs11InstallDataC1ERKS0_@Base 1.7.0
 _ZN3qbs11InstallDataC1Ev@Base 1.7.0
 _ZN3qbs11InstallDataC2ERKS0_@Base 1.7.0
 _ZN3qbs11InstallDataC2Ev@Base 1.7.0
 _ZN3qbs11InstallDataD1Ev@Base 1.7.0
 _ZN3qbs11InstallDataD2Ev@Base 1.7.0
 _ZN3qbs11InstallDataaSERKS0_@Base 1.7.0
 _ZN3qbs11PreferencesC1EPNS_8SettingsERK4QMapI7QString8QVariantE@Base 1.10.0
 _ZN3qbs11PreferencesC1EPNS_8SettingsERK7QString@Base 1.2.1
 _ZN3qbs11PreferencesC2EPNS_8SettingsERK4QMapI7QString8QVariantE@Base 1.10.0
 _ZN3qbs11PreferencesC2EPNS_8SettingsERK7QString@Base 1.2.1
 _ZN3qbs11ProductDataC1ERKS0_@Base 1.2.1
 _ZN3qbs11ProductDataC1Ev@Base 1.2.1
 _ZN3qbs11ProductDataC2ERKS0_@Base 1.2.1
 _ZN3qbs11ProductDataC2Ev@Base 1.2.1
 _ZN3qbs11ProductDataD1Ev@Base 1.2.1
 _ZN3qbs11ProductDataD2Ev@Base 1.2.1
 _ZN3qbs11ProductDataaSERKS0_@Base 1.2.1
 _ZN3qbs11ProjectDataC1ERKS0_@Base 1.2.1
 _ZN3qbs11ProjectDataC1Ev@Base 1.2.1
 _ZN3qbs11ProjectDataC2ERKS0_@Base 1.2.1
 _ZN3qbs11ProjectDataC2Ev@Base 1.2.1
 _ZN3qbs11ProjectDataD1Ev@Base 1.2.1
 _ZN3qbs11ProjectDataD2Ev@Base 1.2.1
 _ZN3qbs11ProjectDataaSERKS0_@Base 1.2.1
 _ZN3qbs11PropertyMapC1ERKS0_@Base 1.2.1
 _ZN3qbs11PropertyMapC1Ev@Base 1.2.1
 _ZN3qbs11PropertyMapC2ERKS0_@Base 1.2.1
 _ZN3qbs11PropertyMapC2Ev@Base 1.2.1
 _ZN3qbs11PropertyMapD1Ev@Base 1.2.1
 _ZN3qbs11PropertyMapD2Ev@Base 1.2.1
 _ZN3qbs11PropertyMapaSERKS0_@Base 1.2.1
 _ZN3qbs11RuleCommandC1ERKS0_@Base 1.3.3
 _ZN3qbs11RuleCommandC1Ev@Base 1.3.3
 _ZN3qbs11RuleCommandC2ERKS0_@Base 1.3.3
 _ZN3qbs11RuleCommandC2Ev@Base 1.3.3
 _ZN3qbs11RuleCommandD1Ev@Base 1.3.3
 _ZN3qbs11RuleCommandD2Ev@Base 1.3.3
 _ZN3qbs11RuleCommandaSERKS0_@Base 1.3.3
 _ZN3qbs11logLevelTagENS_11LoggerLevelE@Base 1.2.1
 _ZN3qbs11toJSLiteralERK11QStringList@Base 1.3.1
 _ZN3qbs11toJSLiteralERK7QString@Base 1.3.1
 _ZN3qbs11toJSLiteralERK8QVariant@Base 1.3.1
 _ZN3qbs11toJSLiteralEb@Base 1.3.1
 _ZN3qbs12ArtifactDataC1ERKS0_@Base 1.7.0
 _ZN3qbs12ArtifactDataC1Ev@Base 1.7.0
 _ZN3qbs12ArtifactDataC2ERKS0_@Base 1.7.0
 _ZN3qbs12ArtifactDataC2Ev@Base 1.7.0
 _ZN3qbs12ArtifactDataD1Ev@Base 1.7.0
 _ZN3qbs12ArtifactDataD2Ev@Base 1.7.0
 _ZN3qbs12ArtifactDataaSERKS0_@Base 1.7.0
 _ZN3qbs12BuildOptions10setInstallEb@Base 1.4.0
 _ZN3qbs12BuildOptions11setEchoModeENS_15CommandEchoModeE@Base 1.4.0
 _ZN3qbs12BuildOptions12setKeepGoingEb@Base 1.2.1
 _ZN3qbs12BuildOptions14setMaxJobCountEi@Base 1.2.1
 _ZN3qbs12BuildOptions15setChangedFilesERK11QStringList@Base 1.2.1
 _ZN3qbs12BuildOptions17setActiveFileTagsERK11QStringList@Base 1.2.1
 _ZN3qbs12BuildOptions17setLogElapsedTimeEb@Base 1.2.1
 _ZN3qbs12BuildOptions18defaultMaxJobCountEv@Base 1.2.1
 _ZN3qbs12BuildOptions18setFilesToConsiderERK11QStringList@Base 1.2.1
 _ZN3qbs12BuildOptions19setExecuteRulesOnlyEb@Base 1.5.0
 _ZN3qbs12BuildOptions19setForceOutputCheckEb@Base 1.5.0
 _ZN3qbs12BuildOptions22setForceTimestampCheckEb@Base 1.2.1
 _ZN3qbs12BuildOptions29setRemoveExistingInstallationEb@Base 1.4.0
 _ZN3qbs12BuildOptions9setDryRunEb@Base 1.2.1
 _ZN3qbs12BuildOptionsC1ERKS0_@Base 1.2.1
 _ZN3qbs12BuildOptionsC1Ev@Base 1.2.1
 _ZN3qbs12BuildOptionsC2ERKS0_@Base 1.2.1
 _ZN3qbs12BuildOptionsC2Ev@Base 1.2.1
 _ZN3qbs12BuildOptionsD1Ev@Base 1.2.1
 _ZN3qbs12BuildOptionsD2Ev@Base 1.2.1
 _ZN3qbs12BuildOptionsaSERKS0_@Base 1.2.1
 _ZN3qbs12CleanOptions12setKeepGoingEb@Base 1.2.1
 _ZN3qbs12CleanOptions17setLogElapsedTimeEb@Base 1.2.1
 _ZN3qbs12CleanOptions9setDryRunEb@Base 1.2.1
 _ZN3qbs12CleanOptionsC1ERKS0_@Base 1.2.1
 _ZN3qbs12CleanOptionsC1Ev@Base 1.2.1
 _ZN3qbs12CleanOptionsC2ERKS0_@Base 1.2.1
 _ZN3qbs12CleanOptionsC2Ev@Base 1.2.1
 _ZN3qbs12CleanOptionsD1Ev@Base 1.2.1
 _ZN3qbs12CleanOptionsD2Ev@Base 1.2.1
 _ZN3qbs12CleanOptionsaSERKS0_@Base 1.2.1
 _ZN3qbs12CodeLocation4loadERNS_8Internal14PersistentPoolE@Base 1.4.0
 _ZN3qbs12CodeLocationC1ERK7QStringiib@Base 1.4.1
 _ZN3qbs12CodeLocationC1ERKS0_@Base 1.2.1
 _ZN3qbs12CodeLocationC1Ev@Base 1.2.1
 _ZN3qbs12CodeLocationC2ERK7QStringiib@Base 1.4.1
 _ZN3qbs12CodeLocationC2ERKS0_@Base 1.2.1
 _ZN3qbs12CodeLocationC2Ev@Base 1.2.1
 _ZN3qbs12CodeLocationD1Ev@Base 1.2.1
 _ZN3qbs12CodeLocationD2Ev@Base 1.2.1
 _ZN3qbs12CodeLocationaSERKS0_@Base 1.2.1
 _ZN3qbs12LanguageInfo10qbsVersionEv@Base 1.5.0
 _ZN3qbs12LanguageInfo11qmlTypeInfoEv@Base 1.2.1
 _ZN3qbs12LanguageInfoC1Ev@Base 1.2.1
 _ZN3qbs12LanguageInfoC2Ev@Base 1.2.1
 _ZN3qbs12logLevelNameENS_11LoggerLevelE@Base 1.2.1
 _ZN3qbs13ProcessResultC1ERKS0_@Base 1.2.1
 _ZN3qbs13ProcessResultC1Ev@Base 1.2.1
 _ZN3qbs13ProcessResultC2ERKS0_@Base 1.2.1
 _ZN3qbs13ProcessResultC2Ev@Base 1.2.1
 _ZN3qbs13ProcessResultD1Ev@Base 1.2.1
 _ZN3qbs13ProcessResultD2Ev@Base 1.2.1
 _ZN3qbs13ProcessResultaSERKS0_@Base 1.2.1
 _ZN3qbs13SettingsModel11qt_metacallEN11QMetaObject4CallEiPPv@Base 1.4.0
 _ZN3qbs13SettingsModel11qt_metacastEPKc@Base 1.4.0
 _ZN3qbs13SettingsModel11setEditableEb@Base 1.4.0
 _ZN3qbs13SettingsModel16staticMetaObjectE@Base 1.4.0
 _ZN3qbs13SettingsModel17updateSettingsDirERK7QString@Base 1.5.0
 _ZN3qbs13SettingsModel20SettingsModelPrivate11indexToNodeERK11QModelIndex@Base 1.4.0
 _ZN3qbs13SettingsModel20SettingsModelPrivate12readSettingsEv@Base 1.4.0
 _ZN3qbs13SettingsModel20SettingsModelPrivate19addNodeFromSettingsEPNS_8Internal4NodeERK7QString@Base 1.4.0
 _ZN3qbs13SettingsModel20SettingsModelPrivate6doSaveEPKNS_8Internal4NodeERK7QString@Base 1.4.0
 _ZN3qbs13SettingsModel20SettingsModelPrivate7addNodeEPNS_8Internal4NodeERK7QStringRK11QStringListRK8QVariant@Base 1.4.0
 _ZN3qbs13SettingsModel23setAdditionalPropertiesERK4QMapI7QString8QVariantE@Base 1.4.0
 _ZN3qbs13SettingsModel4saveEv@Base 1.4.0
 _ZN3qbs13SettingsModel6reloadEv@Base 1.4.0
 _ZN3qbs13SettingsModel7setDataERK11QModelIndexRK8QVarianti@Base 1.4.0
 _ZN3qbs13SettingsModel9addNewKeyERK11QModelIndex@Base 1.4.0
 _ZN3qbs13SettingsModel9removeKeyERK11QModelIndex@Base 1.4.0
 _ZN3qbs13SettingsModelC1ERK7QStringP7QObject@Base 1.4.0
 _ZN3qbs13SettingsModelC2ERK7QStringP7QObject@Base 1.4.0
 _ZN3qbs13SettingsModelD0Ev@Base 1.4.0
 _ZN3qbs13SettingsModelD1Ev@Base 1.4.0
 _ZN3qbs13SettingsModelD2Ev@Base 1.4.0
 _ZN3qbs14InstallOptions12setKeepGoingEb@Base 1.2.1
 _ZN3qbs14InstallOptions14setInstallRootERK7QString@Base 1.2.1
 _ZN3qbs14InstallOptions17setLogElapsedTimeEb@Base 1.2.1
 _ZN3qbs14InstallOptions18defaultInstallRootEv@Base 1.2.1
 _ZN3qbs14InstallOptions21setInstallIntoSysrootEb@Base 1.2.1
 _ZN3qbs14InstallOptions29setRemoveExistingInstallationEb@Base 1.2.1
 _ZN3qbs14InstallOptions9setDryRunEb@Base 1.2.1
 _ZN3qbs14InstallOptionsC1ERKS0_@Base 1.2.1
 _ZN3qbs14InstallOptionsC1Ev@Base 1.2.1
 _ZN3qbs14InstallOptionsC2ERKS0_@Base 1.2.1
 _ZN3qbs14InstallOptionsC2Ev@Base 1.2.1
 _ZN3qbs14InstallOptionsD1Ev@Base 1.2.1
 _ZN3qbs14InstallOptionsD2Ev@Base 1.2.1
 _ZN3qbs14InstallOptionsaSERKS0_@Base 1.2.1
 _ZN3qbs14RunEnvironment10doRunShellEv@Base 1.5.0
 _ZN3qbs14RunEnvironment11doRunTargetERK7QStringRK11QStringList@Base 1.5.0
 _ZN3qbs14RunEnvironment8runShellEPNS_9ErrorInfoE@Base 1.5.0
 _ZN3qbs14RunEnvironment9runTargetERK7QStringRK11QStringListPNS_9ErrorInfoE@Base 1.5.0
 _ZN3qbs14RunEnvironmentC1ERKSt10shared_ptrINS_8Internal15ResolvedProductEERKS1_IKNS2_15TopLevelProjectEERKNS_14InstallOptionsERK19QProcessEnvironmentPNS_8SettingsERKNS2_6LoggerE@Base 1.10.0
 _ZN3qbs14RunEnvironmentC2ERKSt10shared_ptrINS_8Internal15ResolvedProductEERKS1_IKNS2_15TopLevelProjectEERKNS_14InstallOptionsERK19QProcessEnvironmentPNS_8SettingsERKNS2_6LoggerE@Base 1.10.0
 _ZN3qbs14RunEnvironmentD1Ev@Base 1.2.1
 _ZN3qbs14RunEnvironmentD2Ev@Base 1.2.1
 _ZN3qbs15GenerateOptions16setGeneratorNameERK7QString@Base 1.4.0
 _ZN3qbs15GenerateOptionsC1ERKS0_@Base 1.4.0
 _ZN3qbs15GenerateOptionsC1Ev@Base 1.4.0
 _ZN3qbs15GenerateOptionsC2ERKS0_@Base 1.4.0
 _ZN3qbs15GenerateOptionsC2Ev@Base 1.4.0
 _ZN3qbs15GenerateOptionsD1Ev@Base 1.4.0
 _ZN3qbs15GenerateOptionsD2Ev@Base 1.4.0
 _ZN3qbs15GenerateOptionsaSERKS0_@Base 1.4.0
 _ZN3qbs15SetupProjectJob11qt_metacallEN11QMetaObject4CallEiPPv@Base 1.2.1
 _ZN3qbs15SetupProjectJob11qt_metacastEPKc@Base 1.2.1
 _ZN3qbs15SetupProjectJob11reportErrorERKNS_9ErrorInfoE@Base 1.2.1
 _ZN3qbs15SetupProjectJob16staticMetaObjectE@Base 1.2.1
 _ZN3qbs15SetupProjectJob6finishEv@Base 1.3.1
 _ZN3qbs15SetupProjectJob7resolveERKNS_7ProjectERKNS_22SetupProjectParametersE@Base 1.3.1
 _ZN3qbs15SetupProjectJobC1ERKNS_8Internal6LoggerEP7QObject@Base 1.2.1
 _ZN3qbs15SetupProjectJobC2ERKNS_8Internal6LoggerEP7QObject@Base 1.2.1
 _ZN3qbs16ProjectGenerator11qt_metacallEN11QMetaObject4CallEiPPv@Base 1.7.0
 _ZN3qbs16ProjectGenerator11qt_metacastEPKc@Base 1.7.0
 _ZN3qbs16ProjectGenerator16staticMetaObjectE@Base 1.7.0
 _ZN3qbs16ProjectGenerator8generateERK5QListINS_7ProjectEERKS1_I4QMapI7QString8QVariantEERKNS_14InstallOptionsERKS7_RKNS_8Internal6LoggerE@Base 1.10.0
 _ZN3qbs16ProjectGeneratorC1Ev@Base 1.7.0
 _ZN3qbs16ProjectGeneratorC2Ev@Base 1.7.0
 _ZN3qbs16ProjectGeneratorD0Ev@Base 1.7.0
 _ZN3qbs16ProjectGeneratorD1Ev@Base 1.7.0
 _ZN3qbs16ProjectGeneratorD2Ev@Base 1.7.0
 _ZN3qbs18canonicalToolchainERK11QStringList@Base 1.6.0
 _ZN3qbs18canonicalToolchainERK7QString@Base 1.6.0
 _ZN3qbs19commandEchoModeNameENS_15CommandEchoModeE@Base 1.4.0
 _ZN3qbs21canonicalArchitectureERK7QString@Base 1.3.2
 _ZN3qbs22SetupProjectParameters12setBuildRootERK7QString@Base 1.2.1
 _ZN3qbs22SetupProjectParameters14setEnvironmentERK19QProcessEnvironment@Base 1.2.1
 _ZN3qbs22SetupProjectParameters14setLibexecPathERK7QString@Base 1.4.1
 _ZN3qbs22SetupProjectParameters14setPluginPathsERK11QStringList@Base 1.2.1
 _ZN3qbs22SetupProjectParameters14setSearchPathsERK11QStringList@Base 1.2.1
 _ZN3qbs22SetupProjectParameters17setLogElapsedTimeEb@Base 1.2.1
 _ZN3qbs22SetupProjectParameters18setProjectFilePathERK7QString@Base 1.2.1
 _ZN3qbs22SetupProjectParameters18setRestoreBehaviorENS0_15RestoreBehaviorE@Base 1.2.1
 _ZN3qbs22SetupProjectParameters18setTopLevelProfileERK7QString@Base 1.3.1
 _ZN3qbs22SetupProjectParameters19setOverriddenValuesERK4QMapI7QString8QVariantE@Base 1.2.1
 _ZN3qbs22SetupProjectParameters19setProductErrorModeENS_17ErrorHandlingModeE@Base 1.5.0
 _ZN3qbs22SetupProjectParameters20setConfigurationNameERK7QString@Base 1.6.0
 _ZN3qbs22SetupProjectParameters20setSettingsDirectoryERK7QString@Base 1.3.1
 _ZN3qbs22SetupProjectParameters21setWaitLockBuildGraphEb@Base 1.6.0
 _ZN3qbs22SetupProjectParameters22setForceProbeExecutionEb@Base 1.6.0
 _ZN3qbs22SetupProjectParameters23setPropertyCheckingModeENS_17ErrorHandlingModeE@Base 1.5.0
 _ZN3qbs22SetupProjectParameters24expandBuildConfigurationEv@Base 1.3.1
 _ZN3qbs22SetupProjectParameters25setOverrideBuildGraphDataEb@Base 1.10.0
 _ZN3qbs22SetupProjectParameters26expandedBuildConfigurationERKNS_7ProfileERK7QStringPNS_9ErrorInfoE@Base 1.10.0
 _ZN3qbs22SetupProjectParameters27finalBuildConfigurationTreeERK4QMapI7QString8QVariantES6_@Base 1.10.0
 _ZN3qbs22SetupProjectParameters9setDryRunEb@Base 1.2.1
 _ZN3qbs22SetupProjectParametersC1ERKS0_@Base 1.2.1
 _ZN3qbs22SetupProjectParametersC1Ev@Base 1.2.1
 _ZN3qbs22SetupProjectParametersC2ERKS0_@Base 1.2.1
 _ZN3qbs22SetupProjectParametersC2Ev@Base 1.2.1
 _ZN3qbs22SetupProjectParametersD1Ev@Base 1.2.1
 _ZN3qbs22SetupProjectParametersD2Ev@Base 1.2.1
 _ZN3qbs22SetupProjectParametersaSERKS0_@Base 1.2.1
 _ZN3qbs22defaultCommandEchoModeEv@Base 1.4.0
 _ZN3qbs23ProjectGeneratorManager13findGeneratorERK7QString@Base 1.4.0
 _ZN3qbs23ProjectGeneratorManager17registerGeneratorERKSt10shared_ptrINS_16ProjectGeneratorEE@Base 1.10.0
 _ZN3qbs23ProjectGeneratorManager20loadedGeneratorNamesEv@Base 1.4.0
 _ZN3qbs23ProjectGeneratorManager8instanceEv@Base 1.4.0
 _ZN3qbs23ProjectGeneratorManagerC1Ev@Base 1.4.0
 _ZN3qbs23ProjectGeneratorManagerC2Ev@Base 1.4.0
 _ZN3qbs23ProjectGeneratorManagerD1Ev@Base 1.4.0
 _ZN3qbs23ProjectGeneratorManagerD2Ev@Base 1.4.0
 _ZN3qbs23commandEchoModeFromNameERK7QString@Base 1.4.0
 _ZN3qbs25allCommandEchoModeStringsEv@Base 1.4.0
 _ZN3qbs26GeneratableProjectIterator6acceptEPNS_26IGeneratableProjectVisitorE@Base 1.10.0
 _ZN3qbs26GeneratableProjectIterator6acceptERKNS_18GeneratableProjectERKNS_22GeneratableProjectDataES6_PNS_26IGeneratableProjectVisitorE@Base 1.10.0
 _ZN3qbs26GeneratableProjectIteratorC1ERKNS_18GeneratableProjectE@Base 1.10.0
 _ZN3qbs26GeneratableProjectIteratorC2ERKNS_18GeneratableProjectE@Base 1.10.0
 _ZN3qbs27canonicalTargetArchitectureERK7QStringS2_S2_S2_S2_@Base 1.10.0
 _ZN3qbs29representationToSettingsValueERK7QString@Base 1.4.0
 _ZN3qbs29settingsValueToRepresentationERK8QVariant@Base 1.4.0
 _ZN3qbs7Profile13removeProfileEv@Base 1.2.1
 _ZN3qbs7Profile14baseProfileKeyEv@Base 1.2.1
 _ZN3qbs7Profile14setBaseProfileERK7QString@Base 1.2.1
 _ZN3qbs7Profile17removeBaseProfileEv@Base 1.2.1
 _ZN3qbs7Profile6removeERK7QString@Base 1.2.1
 _ZN3qbs7Profile8setValueERK7QStringRK8QVariant@Base 1.2.1
 _ZN3qbs7Profile9cleanNameERK7QString@Base 1.2.1
 _ZN3qbs7ProfileC1ERK7QStringPNS_8SettingsERK4QMapIS1_8QVariantE@Base 1.10.0
 _ZN3qbs7ProfileC2ERK7QStringPNS_8SettingsERK4QMapIS1_8QVariantE@Base 1.10.0
 _ZN3qbs7Project11removeFilesERKNS_11ProductDataERKNS_9GroupDataERK11QStringList@Base 1.3.1
 _ZN3qbs7Project11removeGroupERKNS_11ProductDataERKNS_9GroupDataE@Base 1.3.1
 _ZN3qbs7Project12setupProjectERKNS_22SetupProjectParametersEPNS_8ILogSinkEP7QObject@Base 1.2.1
 _ZN3qbs7Project13dumpNodesTreeER9QIODeviceRK5QListINS_11ProductDataEE@Base 1.4.0
 _ZN3qbs7Project16updateTimestampsERK5QListINS_11ProductDataEE@Base 1.2.1
 _ZN3qbs7Project17getBuildGraphInfoERK7QStringRK11QStringList@Base 1.10.0
 _ZN3qbs7Project8addFilesERKNS_11ProductDataERKNS_9GroupDataERK11QStringList@Base 1.3.1
 _ZN3qbs7Project8addGroupERKNS_11ProductDataERK7QString@Base 1.3.1
 _ZN3qbs7ProjectC1ERKS0_@Base 1.2.1
 _ZN3qbs7ProjectC1ERKSt10shared_ptrINS_8Internal15TopLevelProjectEERKNS2_6LoggerE@Base 1.10.0
 _ZN3qbs7ProjectC1Ev@Base 1.2.1
 _ZN3qbs7ProjectC2ERKS0_@Base 1.2.1
 _ZN3qbs7ProjectC2ERKSt10shared_ptrINS_8Internal15TopLevelProjectEERKNS2_6LoggerE@Base 1.10.0
 _ZN3qbs7ProjectC2Ev@Base 1.2.1
 _ZN3qbs7ProjectD1Ev@Base 1.2.1
 _ZN3qbs7ProjectD2Ev@Base 1.2.1
 _ZN3qbs7ProjectaSERKS0_@Base 1.2.1
 _ZN3qbs8BuildJob11qt_metacallEN11QMetaObject4CallEiPPv@Base 1.2.1
 _ZN3qbs8BuildJob11qt_metacastEPKc@Base 1.2.1
 _ZN3qbs8BuildJob16staticMetaObjectE@Base 1.2.1
 _ZN3qbs8BuildJob19handleLauncherErrorERKNS_9ErrorInfoE@Base 1.8.0
 _ZN3qbs8BuildJob19reportProcessResultERKNS_13ProcessResultE@Base 1.2.1
 _ZN3qbs8BuildJob24reportCommandDescriptionERK7QStringS3_@Base 1.2.1
 _ZN3qbs8BuildJob5buildERKSt10shared_ptrINS_8Internal15TopLevelProjectEERK5QListIS1_INS2_15ResolvedProductEEERKNS_12BuildOptionsE@Base 1.10.0
 _ZN3qbs8BuildJob6finishEv@Base 1.8.0
 _ZN3qbs8BuildJobC1ERKNS_8Internal6LoggerEP7QObject@Base 1.2.1
 _ZN3qbs8BuildJobC2ERKNS_8Internal6LoggerEP7QObject@Base 1.2.1
 _ZN3qbs8CleanJob11qt_metacallEN11QMetaObject4CallEiPPv@Base 1.2.1
 _ZN3qbs8CleanJob11qt_metacastEPKc@Base 1.2.1
 _ZN3qbs8CleanJob16staticMetaObjectE@Base 1.2.1
 _ZN3qbs8CleanJob5cleanERKSt10shared_ptrINS_8Internal15TopLevelProjectEERK5QListIS1_INS2_15ResolvedProductEEERKNS_12CleanOptionsE@Base 1.10.0
 _ZN3qbs8CleanJobC1ERKNS_8Internal6LoggerEP7QObject@Base 1.2.1
 _ZN3qbs8CleanJobC2ERKNS_8Internal6LoggerEP7QObject@Base 1.2.1
 _ZN3qbs8ILogSink11setLogLevelENS_11LoggerLevelE@Base 1.2.1
 _ZN3qbs8ILogSink12printMessageENS_11LoggerLevelERK7QStringS4_b@Base 1.2.1
 _ZN3qbs8ILogSink12printWarningERKNS_9ErrorInfoE@Base 1.2.1
 _ZN3qbs8ILogSink14doPrintWarningERKNS_9ErrorInfoE@Base 1.2.1
 _ZN3qbs8ILogSinkC1Ev@Base 1.2.1
 _ZN3qbs8ILogSinkC2Ev@Base 1.2.1
 _ZN3qbs8ILogSinkD0Ev@Base 1.2.1
 _ZN3qbs8ILogSinkD1Ev@Base 1.2.1
 _ZN3qbs8ILogSinkD2Ev@Base 1.2.1
 _ZN3qbs8Internal10shellQuoteERK11QStringListNS0_10HostOsInfo6HostOsE@Base 1.7.0
 _ZN3qbs8Internal10shellQuoteERK7QStringNS0_10HostOsInfo6HostOsE@Base 1.4.2
 _ZN3qbs8Internal10shellQuoteERK7QStringRK11QStringListNS0_10HostOsInfo6HostOsE@Base 1.4.2
 _ZN3qbs8Internal10shellQuoteERKNSt7__cxx1112basic_stringIcSt11char_traitsIcESaIcEEENS0_10HostOsInfo6HostOsE@Base 1.10.0
 _ZN3qbs8Internal10shellQuoteERKSt6vectorINSt7__cxx1112basic_stringIcSt11char_traitsIcESaIcEEESaIS7_EENS0_10HostOsInfo6HostOsE@Base 1.10.0
 _ZN3qbs8Internal11CommandLine10setProgramERK7QStringb@Base 1.7.0
 _ZN3qbs8Internal11CommandLine10setProgramERKNSt7__cxx1112basic_stringIcSt11char_traitsIcESaIcEEEb@Base 1.10.0
 _ZN3qbs8Internal11CommandLine14appendArgumentERK7QString@Base 1.7.0
 _ZN3qbs8Internal11CommandLine14appendArgumentERKNSt7__cxx1112basic_stringIcSt11char_traitsIcESaIcEEE@Base 1.10.0
 _ZN3qbs8Internal11CommandLine14clearArgumentsEv@Base 1.7.0
 _ZN3qbs8Internal11CommandLine15appendArgumentsERK5QListI7QStringE@Base 1.7.0
 _ZN3qbs8Internal11CommandLine17appendRawArgumentERK7QString@Base 1.7.0
 _ZN3qbs8Internal11CommandLine17appendRawArgumentERKNSt7__cxx1112basic_stringIcSt11char_traitsIcESaIcEEE@Base 1.10.0
 _ZN3qbs8Internal11CommandLine18appendPathArgumentERK7QString@Base 1.7.0
 _ZN3qbs8Internal11FileContext6createEv@Base 1.10.0
 _ZN3qbs8Internal11QualifiedId10fromStringERK7QString@Base 1.10.0
 _ZN3qbs8Internal11QualifiedIdC1ERK11QStringList@Base 1.10.0
 _ZN3qbs8Internal11QualifiedIdC1ERK7QString@Base 1.10.0
 _ZN3qbs8Internal11QualifiedIdC1Ev@Base 1.10.0
 _ZN3qbs8Internal11QualifiedIdC2ERK11QStringList@Base 1.10.0
 _ZN3qbs8Internal11QualifiedIdC2ERK7QString@Base 1.10.0
 _ZN3qbs8Internal11QualifiedIdC2Ev@Base 1.10.0
 _ZN3qbs8Internal12ScriptEngine10importFileERK7QStringR12QScriptValue@Base 1.10.0
 _ZN3qbs8Internal12ScriptEngine10js_requireEP14QScriptContextP13QScriptEngine@Base 1.10.0
 _ZN3qbs8Internal12ScriptEngine11js_loadFileEP14QScriptContextP13QScriptEngine@Base 1.10.0
 _ZN3qbs8Internal12ScriptEngine11qt_metacallEN11QMetaObject4CallEiPPv@Base 1.10.0
 _ZN3qbs8Internal12ScriptEngine11qt_metacastEPKc@Base 1.10.0
 _ZN3qbs8Internal12ScriptEngine12argumentListERK11QStringListRK12QScriptValue@Base 1.10.0
 _ZN3qbs8Internal12ScriptEngine12checkContextERK7QStringRKSt6vectorINS0_14DubiousContextESaIS6_EE@Base 1.10.0
 _ZN3qbs8Internal12ScriptEngine14definePropertyER12QScriptValueRK7QStringRKS2_@Base 1.10.0
 _ZN3qbs8Internal12ScriptEngine14setEnvironmentERK19QProcessEnvironment@Base 1.10.0
 _ZN3qbs8Internal12ScriptEngine15enableProfilingEb@Base 1.10.0
 _ZN3qbs8Internal12ScriptEngine15installFunctionERK7QStringiP12QScriptValuePFS5_P14QScriptContextP13QScriptEngineES6_@Base 1.10.0
 _ZN3qbs8Internal12ScriptEngine16PropertyCacheKeyC1ERK7QStringS5_RKSt10shared_ptrIKNS0_19PropertyMapInternalEE@Base 1.10.0
 _ZN3qbs8Internal12ScriptEngine16PropertyCacheKeyC2ERK7QStringS5_RKSt10shared_ptrIKNS0_19PropertyMapInternalEE@Base 1.10.0
 _ZN3qbs8Internal12ScriptEngine16js_loadExtensionEP14QScriptContextP13QScriptEngine@Base 1.10.0
 _ZN3qbs8Internal12ScriptEngine16staticMetaObjectE@Base 1.10.0
 _ZN3qbs8Internal12ScriptEngine17clearImportsCacheEv@Base 1.10.0
 _ZN3qbs8Internal12ScriptEngine18addToPropertyCacheERK7QStringS4_RKSt10shared_ptrIKNS0_19PropertyMapInternalEERK8QVariant@Base 1.10.0
 _ZN3qbs8Internal12ScriptEngine18installQbsBuiltinsEv@Base 1.10.0
 _ZN3qbs8Internal12ScriptEngine18installQbsFunctionERK7QStringiPF12QScriptValueP14QScriptContextP13QScriptEngineE@Base 1.10.0
 _ZN3qbs8Internal12ScriptEngine19addFileExistsResultERK7QStringb@Base 1.10.0
 _ZN3qbs8Internal12ScriptEngine19setObservedPropertyER12QScriptValueRK7QStringRKS2_PNS0_22ScriptPropertyObserverE@Base 1.10.0
 _ZN3qbs8Internal12ScriptEngine21setDeprecatedPropertyER12QScriptValueRK7QStringS6_RKS2_@Base 1.10.0
 _ZN3qbs8Internal12ScriptEngine22installConsoleFunctionERK7QStringPF12QScriptValueP14QScriptContextP13QScriptEnginePNS0_6LoggerEE@Base 1.10.0
 _ZN3qbs8Internal12ScriptEngine22installImportFunctionsEv@Base 1.10.0
 _ZN3qbs8Internal12ScriptEngine24extendJavaScriptBuiltinsEv@Base 1.10.0
 _ZN3qbs8Internal12ScriptEngine24uninstallImportFunctionsEv@Base 1.10.0
 _ZN3qbs8Internal12ScriptEngine25addDirectoryEntriesResultERK7QString6QFlagsIN4QDir6FilterEERK11QStringList@Base 1.10.0
 _ZN3qbs8Internal12ScriptEngine25addFileLastModifiedResultERK7QStringRKNS0_8FileTimeE@Base 1.10.0
 _ZN3qbs8Internal12ScriptEngine25retrieveFromPropertyCacheERK7QStringS4_RKSt10shared_ptrIKNS0_19PropertyMapInternalEE@Base 1.10.0
 _ZN3qbs8Internal12ScriptEngine26addCanonicalFilePathResultERK7QStringS4_@Base 1.10.0
 _ZN3qbs8Internal12ScriptEngine28setModulePropertyScriptClassEP12QScriptClass@Base 1.10.0
 _ZN3qbs8Internal12ScriptEngine31releaseResourcesOfScriptObjectsEv@Base 1.10.0
 _ZN3qbs8Internal12ScriptEngine32addPropertyRequestedFromArtifactEPKNS0_8ArtifactERKNS0_8PropertyE@Base 1.10.0
 _ZN3qbs8Internal12ScriptEngine32addResourceAcquiringScriptObjectEPNS0_29ResourceAcquiringScriptObjectE@Base 1.10.0
 _ZN3qbs8Internal12ScriptEngine5abortEv@Base 1.10.0
 _ZN3qbs8Internal12ScriptEngine6cancelEv@Base 1.10.0
 _ZN3qbs8Internal12ScriptEngine6importERKNS0_8JsImportER12QScriptValue@Base 1.10.0
 _ZN3qbs8Internal12ScriptEngine6importERKSt10shared_ptrIKNS0_15FileContextBaseEER12QScriptValue@Base 1.10.0
 _ZN3qbs8Internal12ScriptEngineC1ERNS0_6LoggerENS0_11EvalContextEP7QObject@Base 1.10.0
 _ZN3qbs8Internal12ScriptEngineC2ERNS0_6LoggerENS0_11EvalContextEP7QObject@Base 1.10.0
 _ZN3qbs8Internal12ScriptEngineD0Ev@Base 1.10.0
 _ZN3qbs8Internal12ScriptEngineD1Ev@Base 1.10.0
 _ZN3qbs8Internal12ScriptEngineD2Ev@Base 1.10.0
 _ZN3qbs8Internal13CycleDetector12visitProductERKSt10shared_ptrIKNS0_15ResolvedProductEE@Base 1.10.0
 _ZN3qbs8Internal13CycleDetector12visitProjectERKSt10shared_ptrIKNS0_15TopLevelProjectEE@Base 1.10.0
 _ZN3qbs8Internal13CycleDetector5cycleEPNS0_14BuildGraphNodeE@Base 1.10.0
 _ZN3qbs8Internal13CycleDetector5visitEPNS0_8ArtifactE@Base 1.10.0
 _ZN3qbs8Internal13CycleDetector5visitEPNS0_8RuleNodeE@Base 1.10.0
 _ZN3qbs8Internal13CycleDetector9visitNodeEPNS0_14BuildGraphNodeE@Base 1.10.0
 _ZN3qbs8Internal13CycleDetectorC1ERKNS0_6LoggerE@Base 1.10.0
 _ZN3qbs8Internal13CycleDetectorC2ERKNS0_6LoggerE@Base 1.10.0
 _ZN3qbs8Internal13JSSourceValue6createEb@Base 1.10.0
 _ZN3qbs8Internal13ResolvedGroup4loadERNS0_14PersistentPoolE@Base 1.10.0
 _ZN3qbs8Internal14modulePropertyERK4QMapI7QString8QVariantERKS2_S8_@Base 1.10.0
 _ZN3qbs8Internal15ResolvedProduct10uniqueNameERK7QStringS4_@Base 1.10.0
 _ZN3qbs8Internal15ResolvedProduct15fullDisplayNameERK7QStringS4_@Base 1.10.0
 _ZN3qbs8Internal15ResolvedProduct19cacheExecutablePathERK7QStringS4_@Base 1.10.0
 _ZN3qbs8Internal15ResolvedProduct22unmarkForReapplicationERKSt10shared_ptrIKNS0_4RuleEE@Base 1.10.0
 _ZN3qbs8Internal15ResolvedProduct24deriveBuildDirectoryNameERK7QStringS4_@Base 1.10.0
 _ZN3qbs8Internal15ResolvedProduct33registerArtifactWithChangedInputsEPNS0_8ArtifactE@Base 1.10.0
 _ZN3qbs8Internal15ResolvedProduct35unregisterArtifactWithChangedInputsEPNS0_8ArtifactE@Base 1.10.0
 _ZN3qbs8Internal15ResolvedProduct4loadERNS0_14PersistentPoolE@Base 1.10.0
 _ZN3qbs8Internal15ResolvedProductC1Ev@Base 1.10.0
 _ZN3qbs8Internal15ResolvedProductC2Ev@Base 1.10.0
 _ZN3qbs8Internal15ResolvedProductD0Ev@Base 1.10.0
 _ZN3qbs8Internal15ResolvedProductD1Ev@Base 1.10.0
 _ZN3qbs8Internal15ResolvedProductD2Ev@Base 1.10.0
 _ZN3qbs8Internal15ResolvedProject15topLevelProjectEv@Base 1.10.0
 _ZN3qbs8Internal15ResolvedProject4loadERNS0_14PersistentPoolE@Base 1.10.0
 _ZN3qbs8Internal15ResolvedProjectC1Ev@Base 1.10.0
 _ZN3qbs8Internal15ResolvedProjectC2Ev@Base 1.10.0
 _ZN3qbs8Internal15TopLevelProject20deriveBuildDirectoryERK7QStringS4_@Base 1.10.0
 _ZN3qbs8Internal15TopLevelProject21setBuildConfigurationERK4QMapI7QString8QVariantE@Base 1.10.0
 _ZN3qbs8Internal15TopLevelProject4loadERNS0_14PersistentPoolE@Base 1.10.0
 _ZN3qbs8Internal15TopLevelProject8deriveIdERK4QMapI7QString8QVariantE@Base 1.10.0
 _ZN3qbs8Internal15TopLevelProjectC1Ev@Base 1.10.0
 _ZN3qbs8Internal15TopLevelProjectC2Ev@Base 1.10.0
 _ZN3qbs8Internal15TopLevelProjectD0Ev@Base 1.10.0
 _ZN3qbs8Internal15TopLevelProjectD1Ev@Base 1.10.0
 _ZN3qbs8Internal15TopLevelProjectD2Ev@Base 1.10.0
 _ZN3qbs8Internal16IdentifierSearch3addERK7QStringPb@Base 1.10.0
 _ZN3qbs8Internal16IdentifierSearch5startEPN8QbsQmlJS3AST4NodeE@Base 1.10.0
 _ZN3qbs8Internal16IdentifierSearch5visitEPN8QbsQmlJS3AST20IdentifierExpressionE@Base 1.10.0
 _ZN3qbs8Internal16IdentifierSearch8preVisitEPN8QbsQmlJS3AST4NodeE@Base 1.10.0
 _ZN3qbs8Internal16IdentifierSearchC1Ev@Base 1.10.0
 _ZN3qbs8Internal16IdentifierSearchC2Ev@Base 1.10.0
 _ZN3qbs8Internal16ProductBuildData4loadERNS0_14PersistentPoolE@Base 1.10.0
 _ZN3qbs8Internal16ProductBuildDataD0Ev@Base 1.10.0
 _ZN3qbs8Internal16ProductBuildDataD1Ev@Base 1.10.0
 _ZN3qbs8Internal16ProductBuildDataD2Ev@Base 1.10.0
 _ZN3qbs8Internal16ProjectBuildData14removeArtifactEPNS0_8ArtifactERKNS0_6LoggerEbb@Base 1.10.0
 _ZN3qbs8Internal16ProjectBuildData20insertFileDependencyEPNS0_14FileDependencyE@Base 1.10.0
 _ZN3qbs8Internal16ProjectBuildData21insertIntoLookupTableEPNS0_16FileResourceBaseE@Base 1.10.0
 _ZN3qbs8Internal16ProjectBuildData21removeFromLookupTableEPNS0_16FileResourceBaseE@Base 1.10.0
 _ZN3qbs8Internal16ProjectBuildData24deriveBuildGraphFilePathERK7QStringS4_@Base 1.10.0
 _ZN3qbs8Internal16ProjectBuildData36removeArtifactAndExclusiveDependentsEPNS0_8ArtifactERKNS0_6LoggerEbPNS0_3SetIS3_EE@Base 1.10.0
 _ZN3qbs8Internal16ProjectBuildData4loadERNS0_14PersistentPoolE@Base 1.10.0
 _ZN3qbs8Internal16ProjectBuildDataC1EPKS1_@Base 1.10.0
 _ZN3qbs8Internal16ProjectBuildDataC2EPKS1_@Base 1.10.0
 _ZN3qbs8Internal16ProjectBuildDataD0Ev@Base 1.10.0
 _ZN3qbs8Internal16ProjectBuildDataD1Ev@Base 1.10.0
 _ZN3qbs8Internal16ProjectBuildDataD2Ev@Base 1.10.0
 _ZN3qbs8Internal16QbsPluginManager11loadPluginsERK11QStringListRKNS0_6LoggerE@Base 1.10.0
 _ZN3qbs8Internal16QbsPluginManager17loadStaticPluginsEv@Base 1.10.0
 _ZN3qbs8Internal16QbsPluginManager19unloadStaticPluginsEv@Base 1.10.0
 _ZN3qbs8Internal16QbsPluginManager20registerStaticPluginEPFvvES3_@Base 1.10.0
 _ZN3qbs8Internal16QbsPluginManager8instanceEv@Base 1.10.0
 _ZN3qbs8Internal16QbsPluginManagerC1Ev@Base 1.10.0
 _ZN3qbs8Internal16QbsPluginManagerC2Ev@Base 1.10.0
 _ZN3qbs8Internal16QbsPluginManagerD1Ev@Base 1.10.0
 _ZN3qbs8Internal16QbsPluginManagerD2Ev@Base 1.10.0
 _ZN3qbs8Internal16processNameByPidEx@Base 1.10.0
 _ZN3qbs8Internal16shellInterpreterERK7QString@Base 1.4.0
 _ZN3qbs8Internal17copyFileRecursionERK7QStringS3_bbPS1_@Base 1.5.0
 _ZN3qbs8Internal17getConfigPropertyERK4QMapI7QString8QVariantERK11QStringList@Base 1.10.0
 _ZN3qbs8Internal19PropertyMapInternal4loadERNS0_14PersistentPoolE@Base 1.10.0
 _ZN3qbs8Internal19PropertyMapInternal8setValueERK4QMapI7QString8QVariantE@Base 1.10.0
 _ZN3qbs8Internal19PropertyMapInternalC1ERKS1_@Base 1.10.0
 _ZN3qbs8Internal19PropertyMapInternalC1Ev@Base 1.10.0
 _ZN3qbs8Internal19PropertyMapInternalC2ERKS1_@Base 1.10.0
 _ZN3qbs8Internal19PropertyMapInternalC2Ev@Base 1.10.0
 _ZN3qbs8Internal19throwAssertLocationEPKcS2_i@Base 1.2.1
 _ZN3qbs8Internal19writeAssertLocationEPKcS2_i@Base 1.2.1
 _ZN3qbs8Internal20ScannerPluginManager15registerPluginsEPP13ScannerPlugin@Base 1.10.0
 _ZN3qbs8Internal20ScannerPluginManager18scannersForFileTagERKNS0_7FileTagE@Base 1.10.0
 _ZN3qbs8Internal20ScannerPluginManager8instanceEv@Base 1.10.0
 _ZN3qbs8Internal20ScannerPluginManagerC1Ev@Base 1.10.0
 _ZN3qbs8Internal20ScannerPluginManagerC2Ev@Base 1.10.0
 _ZN3qbs8Internal21RescuableArtifactData4loadERNS0_14PersistentPoolE@Base 1.10.0
 _ZN3qbs8Internal21RescuableArtifactDataD1Ev@Base 1.10.0
 _ZN3qbs8Internal21RescuableArtifactDataD2Ev@Base 1.10.0
 _ZN3qbs8Internal21VsEnvironmentDetector14parseBatOutputERK10QByteArraySt6vectorIPNS0_4MSVCESaIS7_EE@Base 1.8.0
 _ZN3qbs8Internal21VsEnvironmentDetector14startDetectionERKSt6vectorIPNS0_4MSVCESaIS4_EE@Base 1.8.0
 _ZN3qbs8Internal21VsEnvironmentDetector5startEPNS0_4MSVCE@Base 1.7.0
 _ZN3qbs8Internal21VsEnvironmentDetector5startESt6vectorIPNS0_4MSVCESaIS4_EE@Base 1.8.0
 _ZN3qbs8Internal21VsEnvironmentDetectorC1Ev@Base 1.7.0
 _ZN3qbs8Internal21VsEnvironmentDetectorC2Ev@Base 1.7.0
 _ZN3qbs8Internal23VisualStudioVersionInfo13knownVersionsEv@Base 1.5.0
 _ZN3qbs8Internal23VisualStudioVersionInfoC1ERKNS0_7VersionE@Base 1.5.0
 _ZN3qbs8Internal23VisualStudioVersionInfoC1Ev@Base 1.8.0
 _ZN3qbs8Internal23VisualStudioVersionInfoC2ERKNS0_7VersionE@Base 1.5.0
 _ZN3qbs8Internal23VisualStudioVersionInfoC2Ev@Base 1.8.0
 _ZN3qbs8Internal27removeDirectoryWithContentsERK7QStringPS1_@Base 1.2.1
 _ZN3qbs8Internal2Id10registerIdEiPKc@Base 1.10.0
 _ZN3qbs8Internal2Id11fromSettingERK8QVariant@Base 1.10.0
 _ZN3qbs8Internal2IdC1EPKc@Base 1.10.0
 _ZN3qbs8Internal2IdC1ERK10QByteArray@Base 1.10.0
 _ZN3qbs8Internal2IdC2EPKc@Base 1.10.0
 _ZN3qbs8Internal2IdC2ERK10QByteArray@Base 1.10.0
 _ZN3qbs8Internal4Item11setPropertyERK7QStringRKSt10shared_ptrINS0_5ValueEE@Base 1.10.0
 _ZN3qbs8Internal4Item12itemPropertyERK7QStringPKS1_@Base 1.10.0
 _ZN3qbs8Internal4Item12itemPropertyERK7QStringPKS1_RKSt10shared_ptrIKNS0_9ItemValueEE@Base 1.10.0
 _ZN3qbs8Internal4Item12itemPropertyERK7QStringRKSt10shared_ptrIKNS0_9ItemValueEE@Base 1.10.0
 _ZN3qbs8Internal4Item14removePropertyERK7QString@Base 1.10.0
 _ZN3qbs8Internal4Item19setupForBuiltinTypeERNS0_6LoggerE@Base 1.10.0
 _ZN3qbs8Internal4Item22setPropertyDeclarationERK7QStringRKNS0_19PropertyDeclarationE@Base 1.10.0
 _ZN3qbs8Internal4Item23setPropertyDeclarationsERK4QMapI7QStringNS0_19PropertyDeclarationEE@Base 1.10.0
 _ZN3qbs8Internal4Item6createEPNS0_8ItemPoolENS0_8ItemTypeE@Base 1.10.0
 _ZN3qbs8Internal4Item8addChildEPS1_S2_@Base 1.10.0
 _ZN3qbs8Internal4Item9addModuleERKNS1_6ModuleE@Base 1.10.0
 _ZN3qbs8Internal4ItemC1EPNS0_8ItemPoolENS0_8ItemTypeE@Base 1.10.0
 _ZN3qbs8Internal4ItemC2EPNS0_8ItemPoolENS0_8ItemTypeE@Base 1.10.0
 _ZN3qbs8Internal4MSVC4initEv@Base 1.7.0
 _ZN3qbs8Internal6Loader11loadProjectERKNS_22SetupProjectParametersE@Base 1.10.0
 _ZN3qbs8Internal6Loader14setSearchPathsERK11QStringList@Base 1.10.0
 _ZN3qbs8Internal6Loader17setStoredProfilesERK4QMapI7QString8QVariantE@Base 1.10.0
 _ZN3qbs8Internal6Loader19setOldProductProbesERK5QHashI7QString5QListISt10shared_ptrIKNS0_5ProbeEEEE@Base 1.10.0
 _ZN3qbs8Internal6Loader19setOldProjectProbesERK5QListISt10shared_ptrIKNS0_5ProbeEEE@Base 1.10.0
 _ZN3qbs8Internal6Loader19setProgressObserverEPNS0_16ProgressObserverE@Base 1.10.0
 _ZN3qbs8Internal6Loader20setupProjectFilePathERNS_22SetupProjectParametersE@Base 1.10.0
 _ZN3qbs8Internal6LoaderC1EPNS0_12ScriptEngineERKNS0_6LoggerE@Base 1.10.0
 _ZN3qbs8Internal6LoaderC2EPNS0_12ScriptEngineERKNS0_6LoggerE@Base 1.10.0
 _ZN3qbs8Internal6Logger12printWarningERKNS_9ErrorInfoE@Base 1.7.0
 _ZN3qbs8Internal6LoggerC1EPNS_8ILogSinkE@Base 1.2.1
 _ZN3qbs8Internal6LoggerC2EPNS_8ILogSinkE@Base 1.2.1
 _ZN3qbs8Internal7Version10fromStringERK7QStringb@Base 1.4.0
 _ZN3qbs8Internal7Version10qbsVersionEv@Base 1.4.0
 _ZN3qbs8Internal7Version13setPatchLevelEi@Base 1.3.1
 _ZN3qbs8Internal7Version14setBuildNumberEi@Base 1.3.1
 _ZN3qbs8Internal7Version15setMajorVersionEi@Base 1.3.1
 _ZN3qbs8Internal7Version15setMinorVersionEi@Base 1.3.1
 _ZN3qbs8Internal7VersionC1Eiiii@Base 1.3.1
 _ZN3qbs8Internal7VersionC2Eiiii@Base 1.3.1
 _ZN3qbs8Internal7compareERKNS0_7VersionES3_@Base 1.3.3
 _ZN3qbs8Internal7connectEPNS0_14BuildGraphNodeES2_@Base 1.10.0
 _ZN3qbs8Internal8Artifact10addFileTagERKNS0_7FileTagE@Base 1.10.0
 _ZN3qbs8Internal8Artifact10initializeEv@Base 1.10.0
 _ZN3qbs8Internal8Artifact11setFileTagsERKNS0_8FileTagsE@Base 1.10.0
 _ZN3qbs8Internal8Artifact13removeFileTagERKNS0_7FileTagE@Base 1.10.0
 _ZN3qbs8Internal8Artifact19onChildDisconnectedEPNS0_14BuildGraphNodeE@Base 1.10.0
 _ZN3qbs8Internal8Artifact4loadERNS0_14PersistentPoolE@Base 1.10.0
 _ZN3qbs8Internal8Artifact6acceptEPNS0_17BuildGraphVisitorE@Base 1.10.0
 _ZN3qbs8Internal8ArtifactC1Ev@Base 1.10.0
 _ZN3qbs8Internal8ArtifactC2Ev@Base 1.10.0
 _ZN3qbs8Internal8ArtifactD0Ev@Base 1.10.0
 _ZN3qbs8Internal8ArtifactD1Ev@Base 1.10.0
 _ZN3qbs8Internal8ArtifactD2Ev@Base 1.10.0
 _ZN3qbs8Internal8FileInfo10fileExistsERK9QFileInfo@Base 1.10.0
 _ZN3qbs8Internal8FileInfo10isAbsoluteERK7QStringNS0_10HostOsInfo6HostOsE@Base 1.10.0
 _ZN3qbs8Internal8FileInfo11globMatchesERK7QRegExpRK7QString@Base 1.10.0
 _ZN3qbs8Internal8FileInfo11resolvePathERK7QStringS4_NS0_10HostOsInfo6HostOsE@Base 1.10.0
 _ZN3qbs8Internal8FileInfo16completeBaseNameERK7QString@Base 1.10.0
 _ZN3qbs8Internal8FileInfo17isFileCaseCorrectERK7QString@Base 1.10.0
 _ZN3qbs8Internal8FileInfo29splitIntoDirectoryAndFileNameERK7QStringP10QStringRefS6_@Base 1.10.0
 _ZN3qbs8Internal8FileInfo29splitIntoDirectoryAndFileNameERK7QStringPS2_S5_@Base 1.10.0
 _ZN3qbs8Internal8FileInfo4pathERK7QStringNS0_10HostOsInfo6HostOsE@Base 1.10.0
 _ZN3qbs8Internal8FileInfo6existsERK7QString@Base 1.10.0
 _ZN3qbs8Internal8FileInfo8baseNameERK7QString@Base 1.10.0
 _ZN3qbs8Internal8FileInfo8fileNameERK7QString@Base 1.10.0
 _ZN3qbs8Internal8FileInfo9isPatternERK10QStringRef@Base 1.10.0
 _ZN3qbs8Internal8FileInfo9isPatternERK7QString@Base 1.10.0
 _ZN3qbs8Internal8FileInfoC1ERK7QString@Base 1.10.0
 _ZN3qbs8Internal8FileInfoC2ERK7QString@Base 1.10.0
 _ZN3qbs8Internal8FileTime10oldestTimeEv@Base 1.10.0
 _ZN3qbs8Internal8FileTime11currentTimeEv@Base 1.10.0
 _ZN3qbs8Internal8FileTime4loadERNS0_14PersistentPoolE@Base 1.10.0
 _ZN3qbs8Internal8FileTime5clearEv@Base 1.10.0
 _ZN3qbs8Internal8FileTimeC1ERK8timespec@Base 1.10.0
 _ZN3qbs8Internal8FileTimeC1Ev@Base 1.10.0
 _ZN3qbs8Internal8FileTimeC2ERK8timespec@Base 1.10.0
 _ZN3qbs8Internal8FileTimeC2Ev@Base 1.10.0
 _ZN3qbs8Internal8ItemPool12allocateItemERKNS0_8ItemTypeE@Base 1.10.0
 _ZN3qbs8Internal8ItemPoolC1Ev@Base 1.10.0
 _ZN3qbs8Internal8ItemPoolC2Ev@Base 1.10.0
 _ZN3qbs8Internal8ItemPoolD1Ev@Base 1.10.0
 _ZN3qbs8Internal8ItemPoolD2Ev@Base 1.10.0
 _ZN3qbs8Internal9Evaluator11scriptValueEPKNS0_4ItemE@Base 1.10.0
 _ZN3qbs8Internal9Evaluator11stringValueEPKNS0_4ItemERK7QStringS7_Pb@Base 1.10.0
 _ZN3qbs8Internal9Evaluator13fileTagsValueEPKNS0_4ItemERK7QStringPb@Base 1.10.0
 _ZN3qbs8Internal9Evaluator15stringListValueEPKNS0_4ItemERK7QStringPb@Base 1.10.0
 _ZN3qbs8Internal9Evaluator16evaluatePropertyEP12QScriptValuePKNS0_4ItemERK7QStringPb@Base 1.10.0
 _ZN3qbs8Internal9Evaluator17fileContextScopesERKSt10shared_ptrIKNS0_11FileContextEE@Base 1.10.0
 _ZN3qbs8Internal9Evaluator17setCachingEnabledEb@Base 1.10.0
 _ZN3qbs8Internal9Evaluator21handleEvaluationErrorEPKNS0_4ItemERK7QStringRK12QScriptValue@Base 1.10.0
 _ZN3qbs8Internal9Evaluator21onItemPropertyChangedEPNS0_4ItemE@Base 1.10.0
 _ZN3qbs8Internal9Evaluator24setPathPropertiesBaseDirERK7QString@Base 1.10.0
 _ZN3qbs8Internal9Evaluator25clearPropertyDependenciesEv@Base 1.10.0
 _ZN3qbs8Internal9Evaluator26clearPathPropertiesBaseDirEv@Base 1.10.0
 _ZN3qbs8Internal9Evaluator5valueEPKNS0_4ItemERK7QStringPb@Base 1.10.0
 _ZN3qbs8Internal9Evaluator8intValueEPKNS0_4ItemERK7QStringiPb@Base 1.10.0
 _ZN3qbs8Internal9Evaluator8propertyEPKNS0_4ItemERK7QString@Base 1.10.0
 _ZN3qbs8Internal9Evaluator9boolValueEPKNS0_4ItemERK7QStringbPb@Base 1.10.0
 _ZN3qbs8Internal9EvaluatorC1EPNS0_12ScriptEngineE@Base 1.10.0
 _ZN3qbs8Internal9EvaluatorC2EPNS0_12ScriptEngineE@Base 1.10.0
 _ZN3qbs8Internal9EvaluatorD0Ev@Base 1.10.0
 _ZN3qbs8Internal9EvaluatorD1Ev@Base 1.10.0
 _ZN3qbs8Internal9EvaluatorD2Ev@Base 1.10.0
 _ZN3qbs8Internal9FileSaver4openEv@Base 1.10.0
 _ZN3qbs8Internal9FileSaver5writeERKNSt7__cxx1112basic_stringIcSt11char_traitsIcESaIcEEE@Base 1.10.0
 _ZN3qbs8Internal9FileSaver5writeERKSt6vectorIcSaIcEE@Base 1.10.0
 _ZN3qbs8Internal9FileSaver6commitEv@Base 1.10.0
 _ZN3qbs8Internal9FileSaver6deviceEv@Base 1.10.0
 _ZN3qbs8Internal9FileSaverC1ERKNSt7__cxx1112basic_stringIcSt11char_traitsIcESaIcEEEb@Base 1.10.0
 _ZN3qbs8Internal9FileSaverC2ERKNSt7__cxx1112basic_stringIcSt11char_traitsIcESaIcEEEb@Base 1.10.0
 _ZN3qbs8Internal9LogWriter13setMessageTagERK7QString@Base 1.2.1
 _ZN3qbs8Internal9LogWriter5writeEPKc@Base 1.2.1
 _ZN3qbs8Internal9LogWriter5writeERK5QChar@Base 1.2.1
 _ZN3qbs8Internal9LogWriter5writeERK7QString@Base 1.2.1
 _ZN3qbs8Internal9LogWriter5writeEc@Base 1.2.1
 _ZN3qbs8Internal9LogWriterC1EPNS_8ILogSinkENS_11LoggerLevelEb@Base 1.2.1
 _ZN3qbs8Internal9LogWriterC1ERKS1_@Base 1.2.1
 _ZN3qbs8Internal9LogWriterC2EPNS_8ILogSinkENS_11LoggerLevelEb@Base 1.2.1
 _ZN3qbs8Internal9LogWriterC2ERKS1_@Base 1.2.1
 _ZN3qbs8Internal9LogWriterD1Ev@Base 1.2.1
 _ZN3qbs8Internal9LogWriterD2Ev@Base 1.2.1
 _ZN3qbs8Internal9LogWriteraSERKS1_@Base 1.2.1
 _ZN3qbs8InternallsENS0_9LogWriterEPKc@Base 1.2.1
 _ZN3qbs8InternallsENS0_9LogWriterERK10QByteArray@Base 1.2.1
 _ZN3qbs8InternallsENS0_9LogWriterERK11QStringList@Base 1.2.1
 _ZN3qbs8InternallsENS0_9LogWriterERK7QString@Base 1.2.1
 _ZN3qbs8InternallsENS0_9LogWriterERK8QVariant@Base 1.2.1
 _ZN3qbs8InternallsENS0_9LogWriterERKNS0_10MessageTagE@Base 1.2.1
 _ZN3qbs8InternallsENS0_9LogWriterERKNS0_3SetI7QStringEE@Base 1.8.0
 _ZN3qbs8InternallsENS0_9LogWriterEb@Base 1.2.1
 _ZN3qbs8InternallsENS0_9LogWriterEi@Base 1.2.1
 _ZN3qbs8InternallsENS0_9LogWriterEx@Base 1.2.1
 _ZN3qbs8InternalltERKNS0_11QualifiedIdES3_@Base 1.10.0
 _ZN3qbs8Settings14directChildrenERK7QString@Base 1.2.1
 _ZN3qbs8Settings4syncEv@Base 1.3.1
 _ZN3qbs8Settings5clearEv@Base 1.2.1
 _ZN3qbs8Settings6removeERK7QString@Base 1.2.1
 _ZN3qbs8Settings8setValueERK7QStringRK8QVariant@Base 1.2.1
 _ZN3qbs8SettingsC1ERK7QString@Base 1.2.1
 _ZN3qbs8SettingsC2ERK7QString@Base 1.2.1
 _ZN3qbs8SettingsD1Ev@Base 1.2.1
 _ZN3qbs8SettingsD2Ev@Base 1.2.1
 _ZN3qbs9ErrorInfo15appendBacktraceERK7QStringRKNS_12CodeLocationE@Base 1.5.0
 _ZN3qbs9ErrorInfo4loadERNS_8Internal14PersistentPoolE@Base 1.7.0
 _ZN3qbs9ErrorInfo5clearEv@Base 1.2.1
 _ZN3qbs9ErrorInfo6appendERK7QStringRKNS_12CodeLocationE@Base 1.2.1
 _ZN3qbs9ErrorInfo6appendERKNS_9ErrorItemE@Base 1.8.0
 _ZN3qbs9ErrorInfo7prependERK7QStringRKNS_12CodeLocationE@Base 1.2.1
 _ZN3qbs9ErrorInfoC1ERK7QStringRK11QStringList@Base 1.5.0
 _ZN3qbs9ErrorInfoC1ERK7QStringRKNS_12CodeLocationEb@Base 1.2.1
 _ZN3qbs9ErrorInfoC1ERKS0_@Base 1.2.1
 _ZN3qbs9ErrorInfoC1Ev@Base 1.2.1
 _ZN3qbs9ErrorInfoC2ERK7QStringRK11QStringList@Base 1.5.0
 _ZN3qbs9ErrorInfoC2ERK7QStringRKNS_12CodeLocationEb@Base 1.2.1
 _ZN3qbs9ErrorInfoC2ERKS0_@Base 1.2.1
 _ZN3qbs9ErrorInfoC2Ev@Base 1.2.1
 _ZN3qbs9ErrorInfoD1Ev@Base 1.2.1
 _ZN3qbs9ErrorInfoD2Ev@Base 1.2.1
 _ZN3qbs9ErrorInfoaSERKS0_@Base 1.2.1
 _ZN3qbs9ErrorItem4loadERNS_8Internal14PersistentPoolE@Base 1.7.0
 _ZN3qbs9ErrorItemC1ERK7QStringRKNS_12CodeLocationEb@Base 1.5.0
 _ZN3qbs9ErrorItemC1ERKS0_@Base 1.2.1
 _ZN3qbs9ErrorItemC1Ev@Base 1.2.1
 _ZN3qbs9ErrorItemC2ERK7QStringRKNS_12CodeLocationEb@Base 1.5.0
 _ZN3qbs9ErrorItemC2ERKS0_@Base 1.2.1
 _ZN3qbs9ErrorItemC2Ev@Base 1.2.1
 _ZN3qbs9ErrorItemD1Ev@Base 1.2.1
 _ZN3qbs9ErrorItemD2Ev@Base 1.2.1
 _ZN3qbs9ErrorItemaSERKS0_@Base 1.2.1
 _ZN3qbs9GroupDataC1ERKS0_@Base 1.2.1
 _ZN3qbs9GroupDataC1Ev@Base 1.2.1
 _ZN3qbs9GroupDataC2ERKS0_@Base 1.2.1
 _ZN3qbs9GroupDataC2Ev@Base 1.2.1
 _ZN3qbs9GroupDataD1Ev@Base 1.2.1
 _ZN3qbs9GroupDataD2Ev@Base 1.2.1
 _ZN3qbs9GroupDataaSERKS0_@Base 1.2.1
 _ZN3qbseqERKNS_11ProductDataES2_@Base 1.2.1
 _ZN3qbseqERKNS_11ProjectDataES2_@Base 1.2.1
 _ZN3qbseqERKNS_11PropertyMapES2_@Base 1.10.0
 _ZN3qbseqERKNS_12ArtifactDataES2_@Base 1.7.0
 _ZN3qbseqERKNS_12CodeLocationES2_@Base 1.2.1
 _ZN3qbseqERKNS_9GroupDataES2_@Base 1.2.1
 _ZN3qbsltERKNS_11ProductDataES2_@Base 1.2.1
 _ZN3qbsltERKNS_11ProjectDataES2_@Base 1.2.1
 _ZN3qbsltERKNS_12ArtifactDataES2_@Base 1.7.0
 _ZN3qbsltERKNS_12CodeLocationES2_@Base 1.8.0
 _ZN3qbsltERKNS_9GroupDataES2_@Base 1.2.1
 _ZN3qbsneERKNS_11ProductDataES2_@Base 1.2.1
 _ZN3qbsneERKNS_11ProjectDataES2_@Base 1.2.1
 _ZN3qbsneERKNS_11PropertyMapES2_@Base 1.10.0
 _ZN3qbsneERKNS_12ArtifactDataES2_@Base 1.7.0
 _ZN3qbsneERKNS_12CodeLocationES2_@Base 1.2.1
 _ZN3qbsneERKNS_9GroupDataES2_@Base 1.2.1
 _ZN8QbsQmlJS3AST7VisitorC1Ev@Base 1.10.0
 _ZN8QbsQmlJS3AST7VisitorC2Ev@Base 1.10.0
 _ZN8QbsQmlJS3AST7VisitorD0Ev@Base 1.10.0
 _ZN8QbsQmlJS3AST7VisitorD1Ev@Base 1.10.0
 _ZN8QbsQmlJS3AST7VisitorD2Ev@Base 1.10.0
 _ZN8QbsQmlJS5Lexer10isHexDigitE5QChar@Base 1.10.0
 _ZN8QbsQmlJS5Lexer10scanNumberE5QChar@Base 1.10.0
 _ZN8QbsQmlJS5Lexer10scanRegExpENS0_16RegExpBodyPrefixE@Base 1.10.0
 _ZN8QbsQmlJS5Lexer12isOctalDigitEt@Base 1.10.0
 _ZN8QbsQmlJS5Lexer13isIdentLetterE5QChar@Base 1.10.0
 _ZN8QbsQmlJS5Lexer14isDecimalDigitEt@Base 1.10.0
 _ZN8QbsQmlJS5Lexer14scanDirectivesEPNS_10DirectivesE@Base 1.10.0
 _ZN8QbsQmlJS5Lexer23isUnicodeEscapeSequenceEPK5QChar@Base 1.10.0
 _ZN8QbsQmlJS5Lexer28decodeUnicodeEscapeCharacterEPb@Base 1.10.0
 _ZN8QbsQmlJS5Lexer30syncProhibitAutomaticSemicolonEv@Base 1.10.0
 _ZN8QbsQmlJS5Lexer3lexEv@Base 1.10.0
 _ZN8QbsQmlJS5Lexer7setCodeERK7QStringib@Base 1.10.0
 _ZN8QbsQmlJS5Lexer8classifyEPK5QCharib@Base 1.10.0
 _ZN8QbsQmlJS5Lexer9scanTokenEv@Base 1.10.0
 _ZN8QbsQmlJS5LexerC1EPNS_6EngineE@Base 1.10.0
 _ZN8QbsQmlJS5LexerC2EPNS_6EngineE@Base 1.10.0
 _ZN8QbsQmlJS6Engine10addCommentEiiii@Base 1.10.0
 _ZN8QbsQmlJS6Engine12newStringRefEPK5QChari@Base 1.10.0
 _ZN8QbsQmlJS6Engine12newStringRefERK7QString@Base 1.10.0
 _ZN8QbsQmlJS6Engine13setDirectivesEPNS_10DirectivesE@Base 1.10.0
 _ZN8QbsQmlJS6Engine4poolEv@Base 1.10.0
 _ZN8QbsQmlJS6Engine7setCodeERK7QString@Base 1.10.0
 _ZN8QbsQmlJS6Engine8setLexerEPNS_5LexerE@Base 1.10.0
 _ZN8QbsQmlJS6EngineC1Ev@Base 1.10.0
 _ZN8QbsQmlJS6EngineC2Ev@Base 1.10.0
 _ZN8QbsQmlJS6EngineD1Ev@Base 1.10.0
 _ZN8QbsQmlJS6EngineD2Ev@Base 1.10.0
 _ZN8QbsQmlJS6Parser15reallocateStackEv@Base 1.10.0
 _ZN8QbsQmlJS6Parser20reparseAsQualifiedIdEPNS_3AST14ExpressionNodeE@Base 1.10.0
 _ZN8QbsQmlJS6Parser5parseEi@Base 1.10.0
 _ZN8QbsQmlJS6ParserC1EPNS_6EngineE@Base 1.10.0
 _ZN8QbsQmlJS6ParserC2EPNS_6EngineE@Base 1.10.0
 _ZN8QbsQmlJS6ParserD1Ev@Base 1.10.0
 _ZN8QbsQmlJS6ParserD2Ev@Base 1.10.0
 _ZNK3qbs10InstallJob10metaObjectEv@Base 1.2.1
 _ZNK3qbs11AbstractJob10metaObjectEv@Base 1.2.1
 _ZNK3qbs11AbstractJob5errorEv@Base 1.2.1
 _ZNK3qbs11InstallData10installDirEv@Base 1.7.0
 _ZNK3qbs11InstallData11installRootEv@Base 1.7.0
 _ZNK3qbs11InstallData13isInstallableEv@Base 1.7.0
 _ZNK3qbs11InstallData15installFilePathEv@Base 1.7.0
 _ZNK3qbs11InstallData15localInstallDirEv@Base 1.7.0
 _ZNK3qbs11InstallData20localInstallFilePathEv@Base 1.7.0
 _ZNK3qbs11InstallData7isValidEv@Base 1.7.0
 _ZNK3qbs11Preferences11pluginPathsERK7QString@Base 1.2.1
 _ZNK3qbs11Preferences11searchPathsERK7QString@Base 1.2.1
 _ZNK3qbs11Preferences13getPreferenceERK7QStringRK8QVariant@Base 1.2.1
 _ZNK3qbs11Preferences15defaultEchoModeEv@Base 1.4.0
 _ZNK3qbs11Preferences16useColoredOutputEv@Base 1.2.1
 _ZNK3qbs11Preferences21defaultBuildDirectoryEv@Base 1.2.1
 _ZNK3qbs11Preferences4jobsEv@Base 1.2.1
 _ZNK3qbs11Preferences5shellEv@Base 1.2.1
 _ZNK3qbs11Preferences8pathListERK7QStringS3_@Base 1.2.1
 _ZNK3qbs11ProductData10isRunnableEv@Base 1.3.1
 _ZNK3qbs11ProductData10propertiesEv@Base 1.3.3
 _ZNK3qbs11ProductData10targetNameEv@Base 1.3.1
 _ZNK3qbs11ProductData12dependenciesEv@Base 1.3.1
 _ZNK3qbs11ProductData13isMultiplexedEv@Base 1.10.0
 _ZNK3qbs11ProductData14buildDirectoryEv@Base 1.7.0
 _ZNK3qbs11ProductData15fullDisplayNameEv@Base 1.10.0
 _ZNK3qbs11ProductData15targetArtifactsEv@Base 1.2.1
 _ZNK3qbs11ProductData16modulePropertiesEv@Base 1.4.0
 _ZNK3qbs11ProductData16targetExecutableEv@Base 1.7.0
 _ZNK3qbs11ProductData18generatedArtifactsEv@Base 1.7.0
 _ZNK3qbs11ProductData20installableArtifactsEv@Base 1.7.0
 _ZNK3qbs11ProductData24multiplexConfigurationIdEv@Base 1.10.0
 _ZNK3qbs11ProductData4nameEv@Base 1.2.1
 _ZNK3qbs11ProductData4typeEv@Base 1.3.1
 _ZNK3qbs11ProductData6groupsEv@Base 1.2.1
 _ZNK3qbs11ProductData7isValidEv@Base 1.2.1
 _ZNK3qbs11ProductData7profileEv@Base 1.3.1
 _ZNK3qbs11ProductData7versionEv@Base 1.3.1
 _ZNK3qbs11ProductData8locationEv@Base 1.2.1
 _ZNK3qbs11ProductData9isEnabledEv@Base 1.2.1
 _ZNK3qbs11ProjectData11allProductsEv@Base 1.2.1
 _ZNK3qbs11ProjectData11subProjectsEv@Base 1.2.1
 _ZNK3qbs11ProjectData14buildDirectoryEv@Base 1.2.1
 _ZNK3qbs11ProjectData20installableArtifactsEv@Base 1.7.0
 _ZNK3qbs11ProjectData4nameEv@Base 1.2.1
 _ZNK3qbs11ProjectData7isValidEv@Base 1.2.1
 _ZNK3qbs11ProjectData8locationEv@Base 1.2.1
 _ZNK3qbs11ProjectData8productsEv@Base 1.2.1
 _ZNK3qbs11ProjectData9isEnabledEv@Base 1.2.1
 _ZNK3qbs11PropertyMap11getPropertyERK7QString@Base 1.2.1
 _ZNK3qbs11PropertyMap13allPropertiesEv@Base 1.2.1
 _ZNK3qbs11PropertyMap17getModulePropertyERK7QStringS3_@Base 1.2.1
 _ZNK3qbs11PropertyMap31getModulePropertiesAsStringListERK7QStringS3_@Base 1.2.1
 _ZNK3qbs11PropertyMap8toStringEv@Base 1.2.1
 _ZNK3qbs11RuleCommand10executableEv@Base 1.3.3
 _ZNK3qbs11RuleCommand10sourceCodeEv@Base 1.3.3
 _ZNK3qbs11RuleCommand11descriptionEv@Base 1.3.3
 _ZNK3qbs11RuleCommand11environmentEv@Base 1.3.3
 _ZNK3qbs11RuleCommand16workingDirectoryEv@Base 1.3.3
 _ZNK3qbs11RuleCommand19extendedDescriptionEv@Base 1.5.0
 _ZNK3qbs11RuleCommand4typeEv@Base 1.3.3
 _ZNK3qbs11RuleCommand9argumentsEv@Base 1.3.3
 _ZNK3qbs12ArtifactData10propertiesEv@Base 1.7.0
 _ZNK3qbs12ArtifactData11installDataEv@Base 1.7.0
 _ZNK3qbs12ArtifactData11isGeneratedEv@Base 1.7.0
 _ZNK3qbs12ArtifactData12isExecutableEv@Base 1.7.0
 _ZNK3qbs12ArtifactData16isTargetArtifactEv@Base 1.7.0
 _ZNK3qbs12ArtifactData7isValidEv@Base 1.7.0
 _ZNK3qbs12ArtifactData8filePathEv@Base 1.7.0
 _ZNK3qbs12ArtifactData8fileTagsEv@Base 1.7.0
 _ZNK3qbs12BuildOptions11maxJobCountEv@Base 1.2.1
 _ZNK3qbs12BuildOptions12changedFilesEv@Base 1.2.1
 _ZNK3qbs12BuildOptions14activeFileTagsEv@Base 1.2.1
 _ZNK3qbs12BuildOptions14logElapsedTimeEv@Base 1.2.1
 _ZNK3qbs12BuildOptions15filesToConsiderEv@Base 1.2.1
 _ZNK3qbs12BuildOptions16executeRulesOnlyEv@Base 1.5.0
 _ZNK3qbs12BuildOptions16forceOutputCheckEv@Base 1.5.0
 _ZNK3qbs12BuildOptions19forceTimestampCheckEv@Base 1.2.1
 _ZNK3qbs12BuildOptions26removeExistingInstallationEv@Base 1.4.0
 _ZNK3qbs12BuildOptions6dryRunEv@Base 1.2.1
 _ZNK3qbs12BuildOptions7installEv@Base 1.4.0
 _ZNK3qbs12BuildOptions8echoModeEv@Base 1.4.0
 _ZNK3qbs12BuildOptions9keepGoingEv@Base 1.2.1
 _ZNK3qbs12CleanOptions14logElapsedTimeEv@Base 1.2.1
 _ZNK3qbs12CleanOptions6dryRunEv@Base 1.2.1
 _ZNK3qbs12CleanOptions9keepGoingEv@Base 1.2.1
 _ZNK3qbs12CodeLocation4lineEv@Base 1.2.1
 _ZNK3qbs12CodeLocation5storeERNS_8Internal14PersistentPoolE@Base 1.4.0
 _ZNK3qbs12CodeLocation6columnEv@Base 1.2.1
 _ZNK3qbs12CodeLocation7isValidEv@Base 1.2.1
 _ZNK3qbs12CodeLocation8filePathEv@Base 1.4.0
 _ZNK3qbs12CodeLocation8toStringEv@Base 1.2.1
 _ZNK3qbs13ProcessResult16workingDirectoryEv@Base 1.2.1
 _ZNK3qbs13ProcessResult18executableFilePathEv@Base 1.2.1
 _ZNK3qbs13ProcessResult5errorEv@Base 1.5.0
 _ZNK3qbs13ProcessResult6stdErrEv@Base 1.2.1
 _ZNK3qbs13ProcessResult6stdOutEv@Base 1.2.1
 _ZNK3qbs13ProcessResult7successEv@Base 1.2.1
 _ZNK3qbs13ProcessResult8exitCodeEv@Base 1.2.1
 _ZNK3qbs13ProcessResult9argumentsEv@Base 1.2.1
 _ZNK3qbs13SettingsModel10headerDataEiN2Qt11OrientationEi@Base 1.4.0
 _ZNK3qbs13SettingsModel10metaObjectEv@Base 1.4.0
 _ZNK3qbs13SettingsModel11columnCountERK11QModelIndex@Base 1.4.0
 _ZNK3qbs13SettingsModel17hasUnsavedChangesEv@Base 1.4.0
 _ZNK3qbs13SettingsModel4dataERK11QModelIndexi@Base 1.4.0
 _ZNK3qbs13SettingsModel5flagsERK11QModelIndex@Base 1.4.0
 _ZNK3qbs13SettingsModel5indexEiiRK11QModelIndex@Base 1.4.0
 _ZNK3qbs13SettingsModel6parentERK11QModelIndex@Base 1.4.0
 _ZNK3qbs13SettingsModel8rowCountERK11QModelIndex@Base 1.4.0
 _ZNK3qbs14InstallOptions11installRootEv@Base 1.2.1
 _ZNK3qbs14InstallOptions14logElapsedTimeEv@Base 1.2.1
 _ZNK3qbs14InstallOptions18installIntoSysrootEv@Base 1.2.1
 _ZNK3qbs14InstallOptions26removeExistingInstallationEv@Base 1.2.1
 _ZNK3qbs14InstallOptions6dryRunEv@Base 1.2.1
 _ZNK3qbs14InstallOptions9keepGoingEv@Base 1.2.1
 _ZNK3qbs14RunEnvironment14runEnvironmentEPNS_9ErrorInfoE@Base 1.5.0
 _ZNK3qbs14RunEnvironment16buildEnvironmentEPNS_9ErrorInfoE@Base 1.5.0
 _ZNK3qbs14RunEnvironment17getRunEnvironmentEv@Base 1.5.0
 _ZNK3qbs14RunEnvironment19getBuildEnvironmentEv@Base 1.5.0
 _ZNK3qbs15GenerateOptions13generatorNameEv@Base 1.4.0
 _ZNK3qbs15SetupProjectJob10metaObjectEv@Base 1.2.1
 _ZNK3qbs15SetupProjectJob7projectEv@Base 1.2.1
 _ZNK3qbs16ProjectGenerator10metaObjectEv@Base 1.7.0
 _ZNK3qbs16ProjectGenerator14qbsSettingsDirEv@Base 1.7.2
 _ZNK3qbs16ProjectGenerator18buildConfigurationERKNS_7ProjectE@Base 1.7.0
 _ZNK3qbs16ProjectGenerator19buildConfigurationsEv@Base 1.7.0
 _ZNK3qbs16ProjectGenerator21qbsExecutableFilePathEv@Base 1.7.0
 _ZNK3qbs16ProjectGenerator29buildConfigurationCommandLineERKNS_7ProjectE@Base 1.7.0
 _ZNK3qbs16ProjectGenerator6loggerEv@Base 1.10.0
 _ZNK3qbs16ProjectGenerator7projectEv@Base 1.7.0
 _ZNK3qbs16ProjectGenerator8projectsEv@Base 1.7.0
 _ZNK3qbs18GeneratableProject11commandLineEv@Base 1.10.0
 _ZNK3qbs18GeneratableProject18baseBuildDirectoryEv@Base 1.10.0
 _ZNK3qbs18GeneratableProject25hasMultipleConfigurationsEv@Base 1.10.0
 _ZNK3qbs18GeneratableProject8filePathEv@Base 1.10.0
 _ZNK3qbs22GeneratableProductData12dependenciesEv@Base 1.10.0
 _ZNK3qbs22GeneratableProductData14buildDirectoryEv@Base 1.10.0
 _ZNK3qbs22GeneratableProductData4nameEv@Base 1.10.0
 _ZNK3qbs22GeneratableProductData4typeEv@Base 1.10.0
 _ZNK3qbs22GeneratableProductData8locationEv@Base 1.10.0
 _ZNK3qbs22GeneratableProjectData10uniqueNameEv@Base 1.10.0
 _ZNK3qbs22GeneratableProjectData4nameEv@Base 1.10.0
 _ZNK3qbs22GeneratableProjectData8locationEv@Base 1.10.0
 _ZNK3qbs22SetupProjectParameters11environmentEv@Base 1.2.1
 _ZNK3qbs22SetupProjectParameters11libexecPathEv@Base 1.4.1
 _ZNK3qbs22SetupProjectParameters11pluginPathsEv@Base 1.2.1
 _ZNK3qbs22SetupProjectParameters11searchPathsEv@Base 1.2.1
 _ZNK3qbs22SetupProjectParameters14logElapsedTimeEv@Base 1.2.1
 _ZNK3qbs22SetupProjectParameters15projectFilePathEv@Base 1.2.1
 _ZNK3qbs22SetupProjectParameters15restoreBehaviorEv@Base 1.2.1
 _ZNK3qbs22SetupProjectParameters15topLevelProfileEv@Base 1.3.1
 _ZNK3qbs22SetupProjectParameters16overriddenValuesEv@Base 1.2.1
 _ZNK3qbs22SetupProjectParameters16productErrorModeEv@Base 1.5.0
 _ZNK3qbs22SetupProjectParameters17configurationNameEv@Base 1.6.0
 _ZNK3qbs22SetupProjectParameters17settingsDirectoryEv@Base 1.3.1
 _ZNK3qbs22SetupProjectParameters18buildConfigurationEv@Base 1.2.1
 _ZNK3qbs22SetupProjectParameters18waitLockBuildGraphEv@Base 1.6.0
 _ZNK3qbs22SetupProjectParameters19adjustedEnvironmentEv@Base 1.3.1
 _ZNK3qbs22SetupProjectParameters19forceProbeExecutionEv@Base 1.6.0
 _ZNK3qbs22SetupProjectParameters20overriddenValuesTreeEv@Base 1.2.1
 _ZNK3qbs22SetupProjectParameters20propertyCheckingModeEv@Base 1.4.0
 _ZNK3qbs22SetupProjectParameters22buildConfigurationTreeEv@Base 1.2.1
 _ZNK3qbs22SetupProjectParameters22overrideBuildGraphDataEv@Base 1.10.0
 _ZNK3qbs22SetupProjectParameters27finalBuildConfigurationTreeEv@Base 1.2.1
 _ZNK3qbs22SetupProjectParameters6dryRunEv@Base 1.2.1
 _ZNK3qbs22SetupProjectParameters9buildRootEv@Base 1.2.1
 _ZNK3qbs7Profile10localValueERK7QString@Base 1.2.1
 _ZNK3qbs7Profile10profileKeyEv@Base 1.2.1
 _ZNK3qbs7Profile11baseProfileEv@Base 1.2.1
 _ZNK3qbs7Profile15allKeysInternalENS0_12KeySelectionE11QStringList@Base 1.2.1
 _ZNK3qbs7Profile17fullyQualifiedKeyERK7QString@Base 1.2.1
 _ZNK3qbs7Profile22possiblyInheritedValueERK7QStringRK8QVariant11QStringList@Base 1.2.1
 _ZNK3qbs7Profile25checkBaseProfileExistenceERKS0_@Base 1.2.1
 _ZNK3qbs7Profile26extendAndCheckProfileChainER11QStringList@Base 1.2.1
 _ZNK3qbs7Profile4nameEv@Base 1.2.1
 _ZNK3qbs7Profile5valueERK7QStringRK8QVariantPNS_9ErrorInfoE@Base 1.2.1
 _ZNK3qbs7Profile6existsEv@Base 1.2.1
 _ZNK3qbs7Profile7allKeysENS0_12KeySelectionEPNS_9ErrorInfoE@Base 1.2.1
 _ZNK3qbs7Project11projectDataEv@Base 1.2.1
 _ZNK3qbs7Project12ruleCommandsERKNS_11ProductDataERK7QStringS6_PNS_9ErrorInfoE@Base 1.3.3
 _ZNK3qbs7Project14generatedFilesERKNS_11ProductDataERK7QStringbRK11QStringList@Base 1.5.0
 _ZNK3qbs7Project15buildOneProductERKNS_11ProductDataERKNS_12BuildOptionsEP7QObject@Base 1.2.1
 _ZNK3qbs7Project15cleanOneProductERKNS_11ProductDataERKNS_12CleanOptionsEP7QObject@Base 1.2.1
 _ZNK3qbs7Project16buildAllProductsERKNS_12BuildOptionsENS0_16ProductSelectionEP7QObject@Base 1.4.0
 _ZNK3qbs7Project16buildSystemFilesEv@Base 1.2.1
 _ZNK3qbs7Project16cleanAllProductsERKNS_12CleanOptionsEP7QObject@Base 1.2.1
 _ZNK3qbs7Project17buildSomeProductsERK5QListINS_11ProductDataEERKNS_12BuildOptionsEP7QObject@Base 1.2.1
 _ZNK3qbs7Project17cleanSomeProductsERK5QListINS_11ProductDataEERKNS_12CleanOptionsEP7QObject@Base 1.2.1
 _ZNK3qbs7Project17getRunEnvironmentERKNS_11ProductDataERKNS_14InstallOptionsERK19QProcessEnvironmentPNS_8SettingsE@Base 1.3.1
 _ZNK3qbs7Project17installOneProductERKNS_11ProductDataERKNS_14InstallOptionsEP7QObject@Base 1.2.1
 _ZNK3qbs7Project18installAllProductsERKNS_14InstallOptionsENS0_16ProductSelectionEP7QObject@Base 1.4.0
 _ZNK3qbs7Project19installSomeProductsERK5QListINS_11ProductDataEERKNS_14InstallOptionsEP7QObject@Base 1.2.1
 _ZNK3qbs7Project20projectConfigurationEv@Base 1.2.1
 _ZNK3qbs7Project7isValidEv@Base 1.2.1
 _ZNK3qbs7Project7profileEv@Base 1.3.1
 _ZNK3qbs8BuildJob10metaObjectEv@Base 1.2.1
 _ZNK3qbs8CleanJob10metaObjectEv@Base 1.2.1
 _ZNK3qbs8ILogSink8logLevelEv@Base 1.2.1
 _ZNK3qbs8Internal11CommandLine13toCommandLineENS0_10HostOsInfo6HostOsE@Base 1.7.0
 _ZNK3qbs8Internal11QualifiedId8toStringEv@Base 1.10.0
 _ZNK3qbs8Internal12ScriptEngine10metaObjectEv@Base 1.10.0
 _ZNK3qbs8Internal12ScriptEngine11environmentEv@Base 1.10.0
 _ZNK3qbs8Internal12ScriptEngine17lastErrorLocationERK12QScriptValueRKNS_12CodeLocationE@Base 1.10.0
 _ZNK3qbs8Internal12ScriptEngine25modulePropertyScriptClassEv@Base 1.10.0
 _ZNK3qbs8Internal12ScriptEngine7importsEv@Base 1.10.0
 _ZNK3qbs8Internal12ScriptEngine9lastErrorERK12QScriptValueRKNS_12CodeLocationE@Base 1.10.0
 _ZNK3qbs8Internal13ResolvedGroup5storeERNS0_14PersistentPoolE@Base 1.10.0
 _ZNK3qbs8Internal13ResolvedGroup8allFilesEv@Base 1.10.0
 _ZNK3qbs8Internal15ResolvedProduct10uniqueNameEv@Base 1.10.0
 _ZNK3qbs8Internal15ResolvedProduct14buildDirectoryEv@Base 1.10.0
 _ZNK3qbs8Internal15ResolvedProduct14builtByDefaultEv@Base 1.10.0
 _ZNK3qbs8Internal15ResolvedProduct14generatedFilesERK7QStringbRKNS0_8FileTagsE@Base 1.10.0
 _ZNK3qbs8Internal15ResolvedProduct15allEnabledFilesEv@Base 1.10.0
 _ZNK3qbs8Internal15ResolvedProduct15fullDisplayNameEv@Base 1.10.0
 _ZNK3qbs8Internal15ResolvedProduct15targetArtifactsEv@Base 1.10.0
 _ZNK3qbs8Internal15ResolvedProduct15topLevelProjectEv@Base 1.10.0
 _ZNK3qbs8Internal15ResolvedProduct17isInParentProjectERKSt10shared_ptrIKS1_E@Base 1.10.0
 _ZNK3qbs8Internal15ResolvedProduct19fileTagsForFileNameERK7QString@Base 1.10.0
 _ZNK3qbs8Internal15ResolvedProduct19setupRunEnvironmentEPNS0_12ScriptEngineERK19QProcessEnvironment@Base 1.10.0
 _ZNK3qbs8Internal15ResolvedProduct20cachedExecutablePathERK7QString@Base 1.10.0
 _ZNK3qbs8Internal15ResolvedProduct21setupBuildEnvironmentEPNS0_12ScriptEngineERK19QProcessEnvironment@Base 1.10.0
 _ZNK3qbs8Internal15ResolvedProduct24isMarkedForReapplicationERKSt10shared_ptrIKNS0_4RuleEE@Base 1.10.0
 _ZNK3qbs8Internal15ResolvedProduct24lookupArtifactsByFileTagERKNS0_7FileTagE@Base 1.10.0
 _ZNK3qbs8Internal15ResolvedProduct25lookupArtifactsByFileTagsERKNS0_8FileTagsE@Base 1.10.0
 _ZNK3qbs8Internal15ResolvedProduct5storeERNS0_14PersistentPoolE@Base 1.10.0
 _ZNK3qbs8Internal15ResolvedProduct6acceptEPNS0_17BuildGraphVisitorE@Base 1.10.0
 _ZNK3qbs8Internal15ResolvedProduct8allFilesEv@Base 1.10.0
 _ZNK3qbs8Internal15ResolvedProject11allProductsEv@Base 1.10.0
 _ZNK3qbs8Internal15ResolvedProject14allSubProjectsEv@Base 1.10.0
 _ZNK3qbs8Internal15ResolvedProject5storeERNS0_14PersistentPoolE@Base 1.10.0
 _ZNK3qbs8Internal15ResolvedProject6acceptEPNS0_17BuildGraphVisitorE@Base 1.10.0
 _ZNK3qbs8Internal15TopLevelProject18buildGraphFilePathEv@Base 1.10.0
 _ZNK3qbs8Internal15TopLevelProject5storeENS0_6LoggerE@Base 1.10.0
 _ZNK3qbs8Internal15TopLevelProject5storeERNS0_14PersistentPoolE@Base 1.10.0
 _ZNK3qbs8Internal15TopLevelProject7profileEv@Base 1.10.0
 _ZNK3qbs8Internal16ProductBuildData13rootArtifactsEv@Base 1.10.0
 _ZNK3qbs8Internal16ProductBuildData5storeERNS0_14PersistentPoolE@Base 1.10.0
 _ZNK3qbs8Internal16ProjectBuildData11lookupFilesEPKNS0_8ArtifactE@Base 1.10.0
 _ZNK3qbs8Internal16ProjectBuildData11lookupFilesERK7QString@Base 1.10.0
 _ZNK3qbs8Internal16ProjectBuildData11lookupFilesERK7QStringS4_@Base 1.10.0
 _ZNK3qbs8Internal16ProjectBuildData5storeERNS0_14PersistentPoolE@Base 1.10.0
 _ZNK3qbs8Internal19PropertyMapInternal14modulePropertyERK7QStringS4_@Base 1.10.0
 _ZNK3qbs8Internal19PropertyMapInternal16qbsPropertyValueERK7QString@Base 1.10.0
 _ZNK3qbs8Internal19PropertyMapInternal5storeERNS0_14PersistentPoolE@Base 1.10.0
 _ZNK3qbs8Internal19PropertyMapInternal8propertyERK11QStringList@Base 1.10.0
 _ZNK3qbs8Internal21RescuableArtifactData5storeERNS0_14PersistentPoolE@Base 1.10.0
 _ZNK3qbs8Internal21VsEnvironmentDetector14writeBatchFileEP9QIODeviceRK7QStringRKSt6vectorIPNS0_4MSVCESaIS9_EE@Base 1.8.0
 _ZNK3qbs8Internal21VsEnvironmentDetector16findVcVarsAllBatERKNS0_4MSVCE@Base 1.7.0
 _ZNK3qbs8Internal23VisualStudioVersionInfo11usesMsBuildEv@Base 1.5.0
 _ZNK3qbs8Internal23VisualStudioVersionInfo11usesVcBuildEv@Base 1.5.0
 _ZNK3qbs8Internal23VisualStudioVersionInfo12toolsVersionEv@Base 1.5.0
 _ZNK3qbs8Internal23VisualStudioVersionInfo13usesSolutionsEv@Base 1.5.0
 _ZNK3qbs8Internal23VisualStudioVersionInfo15solutionVersionEv@Base 1.5.0
 _ZNK3qbs8Internal23VisualStudioVersionInfo16marketingVersionEv@Base 1.5.0
 _ZNK3qbs8Internal23VisualStudioVersionInfo22platformToolsetVersionEv@Base 1.5.0
 _ZNK3qbs8Internal23VisualStudioVersionInfo7versionEv@Base 1.5.0
 _ZNK3qbs8Internal23VisualStudioVersionInfoeqERKS1_@Base 1.5.0
 _ZNK3qbs8Internal23VisualStudioVersionInfoltERKS1_@Base 1.5.0
 _ZNK3qbs8Internal2Id10withPrefixEPKc@Base 1.10.0
 _ZNK3qbs8Internal2Id10withSuffixEPKc@Base 1.10.0
 _ZNK3qbs8Internal2Id10withSuffixEi@Base 1.10.0
 _ZNK3qbs8Internal2Id20alphabeticallyBeforeES1_@Base 1.10.0
 _ZNK3qbs8Internal2Id4nameEv@Base 1.10.0
 _ZNK3qbs8Internal2Id8toStringEv@Base 1.10.0
 _ZNK3qbs8Internal2Id9toSettingEv@Base 1.10.0
 _ZNK3qbs8Internal2IdeqEPKc@Base 1.10.0
 _ZNK3qbs8Internal4Item11hasPropertyERK7QString@Base 1.10.0
 _ZNK3qbs8Internal4Item11ownPropertyERK7QString@Base 1.10.0
 _ZNK3qbs8Internal4Item11setObserverEPNS0_12ItemObserverE@Base 1.10.0
 _ZNK3qbs8Internal4Item12copyPropertyERK7QStringPS1_@Base 1.10.0
 _ZNK3qbs8Internal4Item14hasOwnPropertyERK7QString@Base 1.10.0
 _ZNK3qbs8Internal4Item14sourcePropertyERK7QString@Base 1.10.0
 _ZNK3qbs8Internal4Item15isPresentModuleEv@Base 1.10.0
 _ZNK3qbs8Internal4Item15variantPropertyERK7QString@Base 1.10.0
 _ZNK3qbs8Internal4Item19propertyDeclarationERK7QStringb@Base 1.10.0
 _ZNK3qbs8Internal4Item25isOfTypeOrhasParentOfTypeENS0_8ItemTypeE@Base 1.10.0
 _ZNK3qbs8Internal4Item4dumpEi@Base 1.10.0
 _ZNK3qbs8Internal4Item4dumpEv@Base 1.10.0
 _ZNK3qbs8Internal4Item5childENS0_8ItemTypeEb@Base 1.10.0
 _ZNK3qbs8Internal4Item5cloneEv@Base 1.10.0
 _ZNK3qbs8Internal4Item8propertyERK7QString@Base 1.10.0
 _ZNK3qbs8Internal4Item8typeNameEv@Base 1.10.0
 _ZNK3qbs8Internal4MSVC15compilerDefinesERK7QStringNS1_16CompilerLanguageE@Base 1.10.0
 _ZNK3qbs8Internal4MSVC21clPathForArchitectureERK7QString@Base 1.7.0
 _ZNK3qbs8Internal4MSVC22binPathForArchitectureERK7QString@Base 1.7.0
 _ZNK3qbs8Internal6Logger12debugEnabledEv@Base 1.2.1
 _ZNK3qbs8Internal6Logger12traceEnabledEv@Base 1.2.1
 _ZNK3qbs8Internal6Logger6qbsLogENS_11LoggerLevelEb@Base 1.2.1
 _ZNK3qbs8Internal7Version10patchLevelEv@Base 1.3.1
 _ZNK3qbs8Internal7Version11buildNumberEv@Base 1.3.1
 _ZNK3qbs8Internal7Version12majorVersionEv@Base 1.3.1
 _ZNK3qbs8Internal7Version12minorVersionEv@Base 1.3.1
 _ZNK3qbs8Internal7Version8toStringEv@Base 1.3.1
 _ZNK3qbs8Internal8Artifact14childArtifactsEv@Base 1.10.0
 _ZNK3qbs8Internal8Artifact15parentArtifactsEv@Base 1.10.0
 _ZNK3qbs8Internal8Artifact5storeERNS0_14PersistentPoolE@Base 1.10.0
 _ZNK3qbs8Internal8Artifact8toStringEv@Base 1.10.0
 _ZNK3qbs8Internal8FileInfo12lastModifiedEv@Base 1.10.0
 _ZNK3qbs8Internal8FileInfo16lastStatusChangeEv@Base 1.10.0
 _ZNK3qbs8Internal8FileInfo5isDirEv@Base 1.10.0
 _ZNK3qbs8Internal8FileInfo6existsEv@Base 1.10.0
 _ZNK3qbs8Internal8FileTime5storeERNS0_14PersistentPoolE@Base 1.10.0
 _ZNK3qbs8Internal8FileTime7compareERKS1_@Base 1.10.0
 _ZNK3qbs8Internal8FileTime7isValidEv@Base 1.10.0
 _ZNK3qbs8Internal8FileTime8asDoubleEv@Base 1.10.0
 _ZNK3qbs8Internal8FileTime8toStringEv@Base 1.10.0
 _ZNK3qbs8Internal9Evaluator20propertyDependenciesEv@Base 1.10.0
 _ZNK3qbs8Settings14defaultProfileEv@Base 1.2.1
 _ZNK3qbs8Settings17allKeysWithPrefixERK7QString@Base 1.2.1
 _ZNK3qbs8Settings22externalRepresentationERK7QString@Base 1.2.1
 _ZNK3qbs8Settings22internalRepresentationERK7QString@Base 1.2.1
 _ZNK3qbs8Settings5valueERK7QStringRK8QVariant@Base 1.2.1
 _ZNK3qbs8Settings7allKeysEv@Base 1.2.1
 _ZNK3qbs8Settings8fileNameEv@Base 1.2.1
 _ZNK3qbs8Settings8profilesEv@Base 1.2.1
 _ZNK3qbs8Settings9fixupKeysER11QStringList@Base 1.2.1
 _ZNK3qbs9ErrorInfo11hasLocationEv@Base 1.10.0
 _ZNK3qbs9ErrorInfo15isInternalErrorEv@Base 1.2.1
 _ZNK3qbs9ErrorInfo5itemsEv@Base 1.2.1
 _ZNK3qbs9ErrorInfo5storeERNS_8Internal14PersistentPoolE@Base 1.7.0
 _ZNK3qbs9ErrorInfo8toStringEv@Base 1.2.1
 _ZNK3qbs9ErrorItem11descriptionEv@Base 1.2.1
 _ZNK3qbs9ErrorItem12codeLocationEv@Base 1.2.1
 _ZNK3qbs9ErrorItem15isBacktraceItemEv@Base 1.5.0
 _ZNK3qbs9ErrorItem5storeERNS_8Internal14PersistentPoolE@Base 1.7.0
 _ZNK3qbs9ErrorItem8toStringEv@Base 1.2.1
 _ZNK3qbs9GroupData10propertiesEv@Base 1.2.1
 _ZNK3qbs9GroupData12allFilePathsEv@Base 1.2.1
 _ZNK3qbs9GroupData15sourceArtifactsEv@Base 1.4.0
 _ZNK3qbs9GroupData18allSourceArtifactsEv@Base 1.4.0
 _ZNK3qbs9GroupData28sourceArtifactsFromWildcardsEv@Base 1.4.0
 _ZNK3qbs9GroupData4nameEv@Base 1.2.1
 _ZNK3qbs9GroupData6prefixEv@Base 1.5.0
 _ZNK3qbs9GroupData7isValidEv@Base 1.2.1
 _ZNK3qbs9GroupData8locationEv@Base 1.2.1
 _ZNK3qbs9GroupData9isEnabledEv@Base 1.2.1
 _ZNK8QbsQmlJS5Lexer12errorMessageEv@Base 1.10.0
 _ZNK8QbsQmlJS5Lexer12tokenEndLineEv@Base 1.10.0
 _ZNK8QbsQmlJS5Lexer14prevTerminatorEv@Base 1.10.0
 _ZNK8QbsQmlJS5Lexer14tokenEndColumnEv@Base 1.10.0
 _ZNK8QbsQmlJS5Lexer16isLineTerminatorEv@Base 1.10.0
 _ZNK8QbsQmlJS5Lexer19followsClosingBraceEv@Base 1.10.0
 _ZNK8QbsQmlJS5Lexer27canInsertAutomaticSemicolonEi@Base 1.10.0
 _ZNK8QbsQmlJS5Lexer4codeEv@Base 1.10.0
 _ZNK8QbsQmlJS5Lexer7qmlModeEv@Base 1.10.0
 _ZNK8QbsQmlJS5Lexer9errorCodeEv@Base 1.10.0
 _ZNK8QbsQmlJS5Lexer9tokenTextEv@Base 1.10.0
 _ZNK8QbsQmlJS6Engine10directivesEv@Base 1.10.0
 _ZNK8QbsQmlJS6Engine5lexerEv@Base 1.10.0
 _ZNK8QbsQmlJS6Engine8commentsEv@Base 1.10.0
 (optional=templinst)_ZNKSt7__cxx1112regex_traitsIcE16lookup_classnameIPKcEENS1_10_RegexMaskET_S6_b@Base 1.10.0
 (optional=templinst)_ZNKSt7__cxx1112regex_traitsIcE17transform_primaryIPKcEENS_12basic_stringIcSt11char_traitsIcESaIcEEET_SA_@Base 1.10.0
 (optional=templinst)_ZNKSt7__cxx1112regex_traitsIcE18lookup_collatenameIPKcEENS_12basic_stringIcSt11char_traitsIcESaIcEEET_SA_@Base 1.10.0
 (optional=templinst)_ZNKSt7__cxx1112regex_traitsIcE5valueEci@Base 1.10.0
 (optional=templinst|arch=amd64 i386)_ZNKSt7__cxx1112regex_traitsIcE7isctypeEcNS1_10_RegexMaskE@Base 1.10.0
 (optional=templinst|arch=amd64 arm64 mips mips64el mipsel powerpc ppc64 s390x)_ZNKSt7__cxx1112regex_traitsIcE9transformIN9__gnu_cxx17__normal_iteratorIPKcNS_12basic_stringIcSt11char_traitsIcESaIcEEEEEEESB_T_SD_@Base 1.10.0
 (optional=templinst)_ZNKSt7__cxx1113match_resultsIN9__gnu_cxx17__normal_iteratorIPKcNS_12basic_stringIcSt11char_traitsIcESaIcEEEEESaINS_9sub_matchISA_EEEE6formatISt20back_insert_iteratorIS9_EEET_SI_S4_S4_NSt15regex_constants15match_flag_typeE@Base 1.10.0
 (optional=templinst)_ZNKSt7__cxx1114regex_iteratorIN9__gnu_cxx17__normal_iteratorIPKcNS_12basic_stringIcSt11char_traitsIcESaIcEEEEEcNS_12regex_traitsIcEEEeqERKSD_@Base 1.10.0
 (optional=templinst)_ZNSt10_HashtableIPKN3qbs8Internal4ItemESt4pairIKS4_St6vectorINS0_9ErrorInfoESaIS8_EEESaISB_ENSt8__detail10_Select1stESt8equal_toIS4_ESt4hashIS4_ENSD_18_Mod_range_hashingENSD_20_Default_ranged_hashENSD_20_Prime_rehash_policyENSD_17_Hashtable_traitsILb0ELb0ELb1EEEE21_M_insert_unique_nodeEmmPNSD_10_Hash_nodeISB_Lb0EEE@Base 1.10.1
 (optional=templinst)_ZNSt10_HashtableIPKN3qbs8Internal4ItemESt4pairIKS4_St6vectorINS0_9ErrorInfoESaIS8_EEESaISB_ENSt8__detail10_Select1stESt8equal_toIS4_ESt4hashIS4_ENSD_18_Mod_range_hashingENSD_20_Default_ranged_hashENSD_20_Prime_rehash_policyENSD_17_Hashtable_traitsILb0ELb0ELb1EEEE5clearEv@Base 1.10.1
 (optional=templinst)_ZNSt10_HashtableIPKN3qbs8Internal4ItemESt4pairIKS4_St6vectorINS0_9ErrorInfoESaIS8_EEESaISB_ENSt8__detail10_Select1stESt8equal_toIS4_ESt4hashIS4_ENSD_18_Mod_range_hashingENSD_20_Default_ranged_hashENSD_20_Prime_rehash_policyENSD_17_Hashtable_traitsILb0ELb0ELb1EEEE9_M_assignIZNSO_C4ERKSO_EUlPKNSD_10_Hash_nodeISB_Lb0EEEE_EEvSR_RKT_@Base 1.10.1
 (optional=templinst)_ZNSt10_HashtableIPKN3qbs8Internal4ItemESt4pairIKS4_St6vectorINS0_9ErrorInfoESaIS8_EEESaISB_ENSt8__detail10_Select1stESt8equal_toIS4_ESt4hashIS4_ENSD_18_Mod_range_hashingENSD_20_Default_ranged_hashENSD_20_Prime_rehash_policyENSD_17_Hashtable_traitsILb0ELb0ELb1EEEE9_M_rehashEmRKm@Base 1.10.1
 (optional=templinst|subst|arch=!ppc64 !s390x)_ZNSt10_HashtableIxSt4pairIKx7QStringESaIS3_ENSt8__detail10_Select1stESt8equal_toIxESt4hashIxENS5_18_Mod_range_hashingENS5_20_Default_ranged_hashENS5_20_Prime_rehash_policyENS5_17_Hashtable_traitsILb0ELb0ELb1EEEE21_M_insert_unique_nodeE{size_t}{size_t}PNS5_10_Hash_nodeIS3_Lb0EEE@Base 1.10.0
 (optional=templinst|subst)_ZNSt10_HashtableIxSt4pairIKx7QStringESaIS3_ENSt8__detail10_Select1stESt8equal_toIxESt4hashIxENS5_18_Mod_range_hashingENS5_20_Default_ranged_hashENS5_20_Prime_rehash_policyENS5_17_Hashtable_traitsILb0ELb0ELb1EEEE9_M_rehashE{size_t}RK{size_t}@Base 1.10.0
 (optional=templinst)_ZNSt10_HashtableIxSt4pairIKx7QStringESaIS3_ENSt8__detail10_Select1stESt8equal_toIxESt4hashIxENS5_18_Mod_range_hashingENS5_20_Default_ranged_hashENS5_20_Prime_rehash_policyENS5_17_Hashtable_traitsILb0ELb0ELb1EEEED1Ev@Base 1.10.0
 (optional=templinst)_ZNSt10_HashtableIxSt4pairIKx7QStringESaIS3_ENSt8__detail10_Select1stESt8equal_toIxESt4hashIxENS5_18_Mod_range_hashingENS5_20_Default_ranged_hashENS5_20_Prime_rehash_policyENS5_17_Hashtable_traitsILb0ELb0ELb1EEEED2Ev@Base 1.10.0
 (optional=templinst)_ZNSt11_Deque_baseINSt8__detail9_StateSeqINSt7__cxx1112regex_traitsIcEEEESaIS5_EED1Ev@Base 1.10.0
 (optional=templinst)_ZNSt11_Deque_baseINSt8__detail9_StateSeqINSt7__cxx1112regex_traitsIcEEEESaIS5_EED2Ev@Base 1.10.0
 (optional=templinst|subst)_ZNSt11_Deque_baseIlSaIlEE17_M_initialize_mapE{size_t}@Base 1.10.0
 (optional=templinst)_ZNSt11_Deque_baseIlSaIlEED1Ev@Base 1.10.0
 (optional=templinst)_ZNSt11_Deque_baseIlSaIlEED2Ev@Base 1.10.0
 (optional=templinst|arch=armel)_ZNSt12__shared_ptrIKN3qbs8Internal15ResolvedProductELN9__gnu_cxx12_Lock_policyE1EEC1IS2_vEERKS_IT_LS5_1EE@Base 1.10.0
 (optional=templinst|arch=armel)_ZNSt12__shared_ptrIKN3qbs8Internal15ResolvedProductELN9__gnu_cxx12_Lock_policyE1EEC2IS2_vEERKS_IT_LS5_1EE@Base 1.10.0
 (optional=templinst|arch=!armel)_ZNSt12__shared_ptrIKN3qbs8Internal15ResolvedProductELN9__gnu_cxx12_Lock_policyE2EEC1IS2_vEERKS_IT_LS5_2EE@Base 1.10.0
 (optional=templinst|arch=!armel)_ZNSt12__shared_ptrIKN3qbs8Internal15ResolvedProductELN9__gnu_cxx12_Lock_policyE2EEC2IS2_vEERKS_IT_LS5_2EE@Base 1.10.0
 (optional=templinst|arch=armel)_ZNSt12__shared_ptrIKN3qbs8Internal15TopLevelProjectELN9__gnu_cxx12_Lock_policyE1EEC1IS2_vEERKS_IT_LS5_1EE@Base 1.10.0
 (optional=templinst|arch=armel)_ZNSt12__shared_ptrIKN3qbs8Internal15TopLevelProjectELN9__gnu_cxx12_Lock_policyE1EEC2IS2_vEERKS_IT_LS5_1EE@Base 1.10.0
 (optional=templinst|arch=!armel)_ZNSt12__shared_ptrIKN3qbs8Internal15TopLevelProjectELN9__gnu_cxx12_Lock_policyE2EEC1IS2_vEERKS_IT_LS5_2EE@Base 1.10.0
 (optional=templinst|arch=!armel)_ZNSt12__shared_ptrIKN3qbs8Internal15TopLevelProjectELN9__gnu_cxx12_Lock_policyE2EEC2IS2_vEERKS_IT_LS5_2EE@Base 1.10.0
 (optional=templinst|arch=armel)_ZNSt12__shared_ptrIN3qbs8Internal15ResolvedProductELN9__gnu_cxx12_Lock_policyE1EEC1ERKSt10__weak_ptrIS2_LS4_1EESt9nothrow_t@Base 1.10.0
 (optional=templinst|arch=armel)_ZNSt12__shared_ptrIN3qbs8Internal15ResolvedProductELN9__gnu_cxx12_Lock_policyE1EEC2ERKSt10__weak_ptrIS2_LS4_1EESt9nothrow_t@Base 1.10.0
 (optional=templinst|arch=armel)_ZNSt12__shared_ptrIN3qbs8Internal15ResolvedProjectELN9__gnu_cxx12_Lock_policyE1EEC1INS1_15TopLevelProjectEvEERKS_IT_LS4_1EE@Base 1.10.0
 (optional=templinst|arch=armel)_ZNSt12__shared_ptrIN3qbs8Internal15ResolvedProjectELN9__gnu_cxx12_Lock_policyE1EEC2INS1_15TopLevelProjectEvEERKS_IT_LS4_1EE@Base 1.10.0
 (optional=templinst|arch=!armel)_ZNSt12__shared_ptrIN3qbs8Internal15ResolvedProjectELN9__gnu_cxx12_Lock_policyE2EEC1INS1_15TopLevelProjectEvEERKS_IT_LS4_2EE@Base 1.10.0
 (optional=templinst|arch=!armel)_ZNSt12__shared_ptrIN3qbs8Internal15ResolvedProjectELN9__gnu_cxx12_Lock_policyE2EEC2INS1_15TopLevelProjectEvEERKS_IT_LS4_2EE@Base 1.10.0
 (optional=templinst)_ZNSt14_Function_base13_Base_managerINSt8__detail11_AnyMatcherINSt7__cxx1112regex_traitsIcEELb0ELb0ELb0EEEE10_M_managerERSt9_Any_dataRKS8_St18_Manager_operation@Base 1.10.0
 (optional=templinst)_ZNSt14_Function_base13_Base_managerINSt8__detail11_AnyMatcherINSt7__cxx1112regex_traitsIcEELb0ELb0ELb1EEEE10_M_managerERSt9_Any_dataRKS8_St18_Manager_operation@Base 1.10.0
 (optional=templinst)_ZNSt14_Function_base13_Base_managerINSt8__detail11_AnyMatcherINSt7__cxx1112regex_traitsIcEELb0ELb1ELb0EEEE10_M_managerERSt9_Any_dataRKS8_St18_Manager_operation@Base 1.10.0
 (optional=templinst)_ZNSt14_Function_base13_Base_managerINSt8__detail11_AnyMatcherINSt7__cxx1112regex_traitsIcEELb0ELb1ELb1EEEE10_M_managerERSt9_Any_dataRKS8_St18_Manager_operation@Base 1.10.0
 (optional=templinst)_ZNSt14_Function_base13_Base_managerINSt8__detail11_AnyMatcherINSt7__cxx1112regex_traitsIcEELb1ELb0ELb0EEEE10_M_managerERSt9_Any_dataRKS8_St18_Manager_operation@Base 1.10.0
 (optional=templinst)_ZNSt14_Function_base13_Base_managerINSt8__detail11_AnyMatcherINSt7__cxx1112regex_traitsIcEELb1ELb0ELb1EEEE10_M_managerERSt9_Any_dataRKS8_St18_Manager_operation@Base 1.10.0
 (optional=templinst)_ZNSt14_Function_base13_Base_managerINSt8__detail11_AnyMatcherINSt7__cxx1112regex_traitsIcEELb1ELb1ELb0EEEE10_M_managerERSt9_Any_dataRKS8_St18_Manager_operation@Base 1.10.0
 (optional=templinst)_ZNSt14_Function_base13_Base_managerINSt8__detail11_AnyMatcherINSt7__cxx1112regex_traitsIcEELb1ELb1ELb1EEEE10_M_managerERSt9_Any_dataRKS8_St18_Manager_operation@Base 1.10.0
 (optional=templinst)_ZNSt14_Function_base13_Base_managerINSt8__detail12_CharMatcherINSt7__cxx1112regex_traitsIcEELb0ELb0EEEE10_M_managerERSt9_Any_dataRKS8_St18_Manager_operation@Base 1.10.0
 (optional=templinst)_ZNSt14_Function_base13_Base_managerINSt8__detail12_CharMatcherINSt7__cxx1112regex_traitsIcEELb0ELb1EEEE10_M_managerERSt9_Any_dataRKS8_St18_Manager_operation@Base 1.10.0
 (optional=templinst)_ZNSt14_Function_base13_Base_managerINSt8__detail12_CharMatcherINSt7__cxx1112regex_traitsIcEELb1ELb0EEEE10_M_managerERSt9_Any_dataRKS8_St18_Manager_operation@Base 1.10.0
 (optional=templinst)_ZNSt14_Function_base13_Base_managerINSt8__detail12_CharMatcherINSt7__cxx1112regex_traitsIcEELb1ELb1EEEE10_M_managerERSt9_Any_dataRKS8_St18_Manager_operation@Base 1.10.0
 (optional=templinst)_ZNSt14_Function_base13_Base_managerINSt8__detail15_BracketMatcherINSt7__cxx1112regex_traitsIcEELb0ELb0EEEE10_M_managerERSt9_Any_dataRKS8_St18_Manager_operation@Base 1.10.0
 (optional=templinst)_ZNSt14_Function_base13_Base_managerINSt8__detail15_BracketMatcherINSt7__cxx1112regex_traitsIcEELb0ELb1EEEE10_M_managerERSt9_Any_dataRKS8_St18_Manager_operation@Base 1.10.0
 (optional=templinst)_ZNSt14_Function_base13_Base_managerINSt8__detail15_BracketMatcherINSt7__cxx1112regex_traitsIcEELb1ELb0EEEE10_M_managerERSt9_Any_dataRKS8_St18_Manager_operation@Base 1.10.0
 (optional=templinst)_ZNSt14_Function_base13_Base_managerINSt8__detail15_BracketMatcherINSt7__cxx1112regex_traitsIcEELb1ELb1EEEE10_M_managerERSt9_Any_dataRKS8_St18_Manager_operation@Base 1.10.0
 (optional=templinst|arch=armel)_ZNSt14__shared_countILN9__gnu_cxx12_Lock_policyE1EEaSERKS2_@Base 1.10.0
 (optional=templinst|arch=!armel)_ZNSt14__shared_countILN9__gnu_cxx12_Lock_policyE2EEaSERKS2_@Base 1.10.0
 (optional=templinst|arch=armel)_ZNSt15_Sp_counted_ptrIDnLN9__gnu_cxx12_Lock_policyE1EE10_M_disposeEv@Base 1.10.0
 (optional=templinst|arch=!armel)_ZNSt15_Sp_counted_ptrIDnLN9__gnu_cxx12_Lock_policyE2EE10_M_disposeEv@Base 1.10.0
 (optional=templinst|arch=armel)_ZNSt15_Sp_counted_ptrIPN3qbs8Internal13ResolvedGroupELN9__gnu_cxx12_Lock_policyE1EE10_M_destroyEv@Base 1.10.0
 (optional=templinst|arch=armel)_ZNSt15_Sp_counted_ptrIPN3qbs8Internal13ResolvedGroupELN9__gnu_cxx12_Lock_policyE1EE10_M_disposeEv@Base 1.10.0
 (optional=templinst|arch=armel)_ZNSt15_Sp_counted_ptrIPN3qbs8Internal13ResolvedGroupELN9__gnu_cxx12_Lock_policyE1EE14_M_get_deleterERKSt9type_info@Base 1.10.0
 (optional=templinst|arch=!armel)_ZNSt15_Sp_counted_ptrIPN3qbs8Internal13ResolvedGroupELN9__gnu_cxx12_Lock_policyE2EE10_M_destroyEv@Base 1.10.0
 (optional=templinst|arch=!armel)_ZNSt15_Sp_counted_ptrIPN3qbs8Internal13ResolvedGroupELN9__gnu_cxx12_Lock_policyE2EE10_M_disposeEv@Base 1.10.0
 (optional=templinst|arch=!armel)_ZNSt15_Sp_counted_ptrIPN3qbs8Internal13ResolvedGroupELN9__gnu_cxx12_Lock_policyE2EE14_M_get_deleterERKSt9type_info@Base 1.10.0
 (optional=templinst|arch=armel)_ZNSt15_Sp_counted_ptrIPN3qbs8Internal15ResolvedProductELN9__gnu_cxx12_Lock_policyE1EE10_M_destroyEv@Base 1.10.0
 (optional=templinst|arch=armel)_ZNSt15_Sp_counted_ptrIPN3qbs8Internal15ResolvedProductELN9__gnu_cxx12_Lock_policyE1EE10_M_disposeEv@Base 1.10.0
 (optional=templinst|arch=armel)_ZNSt15_Sp_counted_ptrIPN3qbs8Internal15ResolvedProductELN9__gnu_cxx12_Lock_policyE1EE14_M_get_deleterERKSt9type_info@Base 1.10.0
 (optional=templinst|arch=!armel)_ZNSt15_Sp_counted_ptrIPN3qbs8Internal15ResolvedProductELN9__gnu_cxx12_Lock_policyE2EE10_M_destroyEv@Base 1.10.0
 (optional=templinst|arch=!armel)_ZNSt15_Sp_counted_ptrIPN3qbs8Internal15ResolvedProductELN9__gnu_cxx12_Lock_policyE2EE10_M_disposeEv@Base 1.10.0
 (optional=templinst|arch=!armel)_ZNSt15_Sp_counted_ptrIPN3qbs8Internal15ResolvedProductELN9__gnu_cxx12_Lock_policyE2EE14_M_get_deleterERKSt9type_info@Base 1.10.0
 (optional=templinst|arch=armel)_ZNSt15_Sp_counted_ptrIPN3qbs8Internal15ResolvedProjectELN9__gnu_cxx12_Lock_policyE1EE10_M_destroyEv@Base 1.10.0
 (optional=templinst|arch=armel)_ZNSt15_Sp_counted_ptrIPN3qbs8Internal15ResolvedProjectELN9__gnu_cxx12_Lock_policyE1EE10_M_disposeEv@Base 1.10.0
 (optional=templinst|arch=armel)_ZNSt15_Sp_counted_ptrIPN3qbs8Internal15ResolvedProjectELN9__gnu_cxx12_Lock_policyE1EE14_M_get_deleterERKSt9type_info@Base 1.10.0
 (optional=templinst|arch=!armel)_ZNSt15_Sp_counted_ptrIPN3qbs8Internal15ResolvedProjectELN9__gnu_cxx12_Lock_policyE2EE10_M_destroyEv@Base 1.10.0
 (optional=templinst|arch=!armel)_ZNSt15_Sp_counted_ptrIPN3qbs8Internal15ResolvedProjectELN9__gnu_cxx12_Lock_policyE2EE10_M_disposeEv@Base 1.10.0
 (optional=templinst|arch=!armel)_ZNSt15_Sp_counted_ptrIPN3qbs8Internal15ResolvedProjectELN9__gnu_cxx12_Lock_policyE2EE14_M_get_deleterERKSt9type_info@Base 1.10.0
 (optional=templinst|arch=armel)_ZNSt15_Sp_counted_ptrIPN3qbs8Internal15TopLevelProjectELN9__gnu_cxx12_Lock_policyE1EE10_M_destroyEv@Base 1.10.0
 (optional=templinst|arch=armel)_ZNSt15_Sp_counted_ptrIPN3qbs8Internal15TopLevelProjectELN9__gnu_cxx12_Lock_policyE1EE10_M_disposeEv@Base 1.10.0
 (optional=templinst|arch=armel)_ZNSt15_Sp_counted_ptrIPN3qbs8Internal15TopLevelProjectELN9__gnu_cxx12_Lock_policyE1EE14_M_get_deleterERKSt9type_info@Base 1.10.0
 (optional=templinst|arch=!armel)_ZNSt15_Sp_counted_ptrIPN3qbs8Internal15TopLevelProjectELN9__gnu_cxx12_Lock_policyE2EE10_M_destroyEv@Base 1.10.0
 (optional=templinst|arch=!armel)_ZNSt15_Sp_counted_ptrIPN3qbs8Internal15TopLevelProjectELN9__gnu_cxx12_Lock_policyE2EE10_M_disposeEv@Base 1.10.0
 (optional=templinst|arch=!armel)_ZNSt15_Sp_counted_ptrIPN3qbs8Internal15TopLevelProjectELN9__gnu_cxx12_Lock_policyE2EE14_M_get_deleterERKSt9type_info@Base 1.10.0
 (optional=templinst|arch=armel)_ZNSt15_Sp_counted_ptrIPN3qbs8Internal19PropertyMapInternalELN9__gnu_cxx12_Lock_policyE1EE10_M_destroyEv@Base 1.10.0
 (optional=templinst|arch=armel)_ZNSt15_Sp_counted_ptrIPN3qbs8Internal19PropertyMapInternalELN9__gnu_cxx12_Lock_policyE1EE10_M_disposeEv@Base 1.10.0
 (optional=templinst|arch=armel)_ZNSt15_Sp_counted_ptrIPN3qbs8Internal19PropertyMapInternalELN9__gnu_cxx12_Lock_policyE1EE14_M_get_deleterERKSt9type_info@Base 1.10.0
 (optional=templinst|arch=!armel)_ZNSt15_Sp_counted_ptrIPN3qbs8Internal19PropertyMapInternalELN9__gnu_cxx12_Lock_policyE2EE10_M_destroyEv@Base 1.10.0
 (optional=templinst|arch=!armel)_ZNSt15_Sp_counted_ptrIPN3qbs8Internal19PropertyMapInternalELN9__gnu_cxx12_Lock_policyE2EE10_M_disposeEv@Base 1.10.0
 (optional=templinst|arch=!armel)_ZNSt15_Sp_counted_ptrIPN3qbs8Internal19PropertyMapInternalELN9__gnu_cxx12_Lock_policyE2EE14_M_get_deleterERKSt9type_info@Base 1.10.0
 (optional=templinst|arch=armel)_ZNSt15_Sp_counted_ptrIPN3qbs8Internal8ItemPoolELN9__gnu_cxx12_Lock_policyE1EE10_M_destroyEv@Base 1.10.0
 (optional=templinst|arch=armel)_ZNSt15_Sp_counted_ptrIPN3qbs8Internal8ItemPoolELN9__gnu_cxx12_Lock_policyE1EE10_M_disposeEv@Base 1.10.0
 (optional=templinst|arch=armel)_ZNSt15_Sp_counted_ptrIPN3qbs8Internal8ItemPoolELN9__gnu_cxx12_Lock_policyE1EE14_M_get_deleterERKSt9type_info@Base 1.10.0
 (optional=templinst|arch=!armel)_ZNSt15_Sp_counted_ptrIPN3qbs8Internal8ItemPoolELN9__gnu_cxx12_Lock_policyE2EE10_M_destroyEv@Base 1.10.0
 (optional=templinst|arch=!armel)_ZNSt15_Sp_counted_ptrIPN3qbs8Internal8ItemPoolELN9__gnu_cxx12_Lock_policyE2EE10_M_disposeEv@Base 1.10.0
 (optional=templinst|arch=!armel)_ZNSt15_Sp_counted_ptrIPN3qbs8Internal8ItemPoolELN9__gnu_cxx12_Lock_policyE2EE14_M_get_deleterERKSt9type_info@Base 1.10.0
 (optional=templinst|arch=armel)_ZNSt16_Sp_counted_baseILN9__gnu_cxx12_Lock_policyE1EE10_M_destroyEv@Base 1.10.0
 (optional=templinst|arch=armel)_ZNSt16_Sp_counted_baseILN9__gnu_cxx12_Lock_policyE1EE10_M_releaseEv@Base 1.10.0
 (optional=templinst|arch=!armel)_ZNSt16_Sp_counted_baseILN9__gnu_cxx12_Lock_policyE2EE10_M_destroyEv@Base 1.10.0
 (optional=templinst|arch=!armel)_ZNSt16_Sp_counted_baseILN9__gnu_cxx12_Lock_policyE2EE10_M_releaseEv@Base 1.10.0
 (optional=templinst|arch=!armel)_ZNSt16_Sp_counted_baseILN9__gnu_cxx12_Lock_policyE2EE15_M_weak_releaseEv@Base 1.10.0
 (optional=templinst)_ZNSt17_Function_handlerIF7QStringRKN3qbs11ProductDataEEMS2_KFS0_vEE9_M_invokeERKSt9_Any_dataS4_@Base 1.10.0
 (optional=templinst)_ZNSt17_Function_handlerIF7QStringRKN3qbs11ProjectDataEEMS2_KFS0_vEE9_M_invokeERKSt9_Any_dataS4_@Base 1.10.0
 (optional=templinst)_ZNSt17_Function_handlerIFN3qbs12CodeLocationERKNS0_11ProductDataEEMS2_KFS1_vEE9_M_invokeERKSt9_Any_dataS4_@Base 1.10.0
 (optional=templinst)_ZNSt17_Function_handlerIFbcENSt8__detail11_AnyMatcherINSt7__cxx1112regex_traitsIcEELb0ELb0ELb0EEEE9_M_invokeERKSt9_Any_dataOc@Base 1.10.0
 (optional=templinst)_ZNSt17_Function_handlerIFbcENSt8__detail11_AnyMatcherINSt7__cxx1112regex_traitsIcEELb0ELb0ELb1EEEE9_M_invokeERKSt9_Any_dataOc@Base 1.10.0
 (optional=templinst)_ZNSt17_Function_handlerIFbcENSt8__detail11_AnyMatcherINSt7__cxx1112regex_traitsIcEELb0ELb1ELb0EEEE9_M_invokeERKSt9_Any_dataOc@Base 1.10.0
 (optional=templinst)_ZNSt17_Function_handlerIFbcENSt8__detail11_AnyMatcherINSt7__cxx1112regex_traitsIcEELb0ELb1ELb1EEEE9_M_invokeERKSt9_Any_dataOc@Base 1.10.0
 (optional=templinst)_ZNSt17_Function_handlerIFbcENSt8__detail11_AnyMatcherINSt7__cxx1112regex_traitsIcEELb1ELb0ELb0EEEE9_M_invokeERKSt9_Any_dataOc@Base 1.10.0
 (optional=templinst)_ZNSt17_Function_handlerIFbcENSt8__detail11_AnyMatcherINSt7__cxx1112regex_traitsIcEELb1ELb0ELb1EEEE9_M_invokeERKSt9_Any_dataOc@Base 1.10.0
 (optional=templinst)_ZNSt17_Function_handlerIFbcENSt8__detail11_AnyMatcherINSt7__cxx1112regex_traitsIcEELb1ELb1ELb0EEEE9_M_invokeERKSt9_Any_dataOc@Base 1.10.0
 (optional=templinst)_ZNSt17_Function_handlerIFbcENSt8__detail11_AnyMatcherINSt7__cxx1112regex_traitsIcEELb1ELb1ELb1EEEE9_M_invokeERKSt9_Any_dataOc@Base 1.10.0
 (optional=templinst)_ZNSt17_Function_handlerIFbcENSt8__detail12_CharMatcherINSt7__cxx1112regex_traitsIcEELb0ELb0EEEE9_M_invokeERKSt9_Any_dataOc@Base 1.10.0
 (optional=templinst)_ZNSt17_Function_handlerIFbcENSt8__detail12_CharMatcherINSt7__cxx1112regex_traitsIcEELb0ELb1EEEE9_M_invokeERKSt9_Any_dataOc@Base 1.10.0
 (optional=templinst)_ZNSt17_Function_handlerIFbcENSt8__detail12_CharMatcherINSt7__cxx1112regex_traitsIcEELb1ELb0EEEE9_M_invokeERKSt9_Any_dataOc@Base 1.10.0
 (optional=templinst)_ZNSt17_Function_handlerIFbcENSt8__detail12_CharMatcherINSt7__cxx1112regex_traitsIcEELb1ELb1EEEE9_M_invokeERKSt9_Any_dataOc@Base 1.10.0
 (optional=templinst)_ZNSt17_Function_handlerIFbcENSt8__detail15_BracketMatcherINSt7__cxx1112regex_traitsIcEELb0ELb0EEEE9_M_invokeERKSt9_Any_dataOc@Base 1.10.0
 (optional=templinst)_ZNSt17_Function_handlerIFbcENSt8__detail15_BracketMatcherINSt7__cxx1112regex_traitsIcEELb0ELb1EEEE9_M_invokeERKSt9_Any_dataOc@Base 1.10.0
 (optional=templinst)_ZNSt17_Function_handlerIFbcENSt8__detail15_BracketMatcherINSt7__cxx1112regex_traitsIcEELb1ELb0EEEE9_M_invokeERKSt9_Any_dataOc@Base 1.10.0
 (optional=templinst)_ZNSt17_Function_handlerIFbcENSt8__detail15_BracketMatcherINSt7__cxx1112regex_traitsIcEELb1ELb1EEEE9_M_invokeERKSt9_Any_dataOc@Base 1.10.0
 (optional=templinst)_ZNSt17_Function_handlerIFvRKN3qbs11ProductDataEEMS1_KF7QStringvEE10_M_managerERSt9_Any_dataRKS9_St18_Manager_operation@Base 1.10.0
 (optional=templinst)_ZNSt17_Function_handlerIFvRKN3qbs11ProductDataEEMS1_KFNS0_12CodeLocationEvEE10_M_managerERSt9_Any_dataRKS9_St18_Manager_operation@Base 1.10.0
 (optional=templinst)_ZNSt17_Function_handlerIFvRKN3qbs11ProjectDataEEMS1_KF7QStringvEE10_M_managerERSt9_Any_dataRKS9_St18_Manager_operation@Base 1.10.0
 (optional=templinst|arch=armel)_ZNSt23_Sp_counted_ptr_inplaceIN3qbs8Internal16ProjectBuildDataESaIS2_ELN9__gnu_cxx12_Lock_policyE1EE10_M_destroyEv@Base 1.10.0
 (optional=templinst|arch=armel)_ZNSt23_Sp_counted_ptr_inplaceIN3qbs8Internal16ProjectBuildDataESaIS2_ELN9__gnu_cxx12_Lock_policyE1EE10_M_disposeEv@Base 1.10.0
 (optional=templinst|arch=armel)_ZNSt23_Sp_counted_ptr_inplaceIN3qbs8Internal16ProjectBuildDataESaIS2_ELN9__gnu_cxx12_Lock_policyE1EE14_M_get_deleterERKSt9type_info@Base 1.10.0
 (optional=templinst|arch=armel)_ZNSt23_Sp_counted_ptr_inplaceIN3qbs8Internal16ProjectBuildDataESaIS2_ELN9__gnu_cxx12_Lock_policyE1EED0Ev@Base 1.10.0
 (optional=templinst|arch=armel)_ZNSt23_Sp_counted_ptr_inplaceIN3qbs8Internal16ProjectBuildDataESaIS2_ELN9__gnu_cxx12_Lock_policyE1EED1Ev@Base 1.10.0
 (optional=templinst|arch=armel)_ZNSt23_Sp_counted_ptr_inplaceIN3qbs8Internal16ProjectBuildDataESaIS2_ELN9__gnu_cxx12_Lock_policyE1EED2Ev@Base 1.10.0
 (optional=templinst|arch=!armel)_ZNSt23_Sp_counted_ptr_inplaceIN3qbs8Internal16ProjectBuildDataESaIS2_ELN9__gnu_cxx12_Lock_policyE2EE10_M_destroyEv@Base 1.10.0
 (optional=templinst|arch=!armel)_ZNSt23_Sp_counted_ptr_inplaceIN3qbs8Internal16ProjectBuildDataESaIS2_ELN9__gnu_cxx12_Lock_policyE2EE10_M_disposeEv@Base 1.10.0
 (optional=templinst|arch=!armel)_ZNSt23_Sp_counted_ptr_inplaceIN3qbs8Internal16ProjectBuildDataESaIS2_ELN9__gnu_cxx12_Lock_policyE2EE14_M_get_deleterERKSt9type_info@Base 1.10.0
 (optional=templinst|arch=!armel)_ZNSt23_Sp_counted_ptr_inplaceIN3qbs8Internal16ProjectBuildDataESaIS2_ELN9__gnu_cxx12_Lock_policyE2EED0Ev@Base 1.10.0
 (optional=templinst|arch=!armel)_ZNSt23_Sp_counted_ptr_inplaceIN3qbs8Internal16ProjectBuildDataESaIS2_ELN9__gnu_cxx12_Lock_policyE2EED1Ev@Base 1.10.0
 (optional=templinst|arch=!armel)_ZNSt23_Sp_counted_ptr_inplaceIN3qbs8Internal16ProjectBuildDataESaIS2_ELN9__gnu_cxx12_Lock_policyE2EED2Ev@Base 1.10.0
 (optional=templinst|arch=armel)_ZNSt23_Sp_counted_ptr_inplaceINSt7__cxx1118basic_stringstreamIcSt11char_traitsIcESaIcEEESaIS5_ELN9__gnu_cxx12_Lock_policyE1EE10_M_destroyEv@Base 1.10.0
 (optional=templinst|arch=armel)_ZNSt23_Sp_counted_ptr_inplaceINSt7__cxx1118basic_stringstreamIcSt11char_traitsIcESaIcEEESaIS5_ELN9__gnu_cxx12_Lock_policyE1EE10_M_disposeEv@Base 1.10.0
 (optional=templinst|arch=armel)_ZNSt23_Sp_counted_ptr_inplaceINSt7__cxx1118basic_stringstreamIcSt11char_traitsIcESaIcEEESaIS5_ELN9__gnu_cxx12_Lock_policyE1EE14_M_get_deleterERKSt9type_info@Base 1.10.0
 (optional=templinst|arch=armel)_ZNSt23_Sp_counted_ptr_inplaceINSt7__cxx1118basic_stringstreamIcSt11char_traitsIcESaIcEEESaIS5_ELN9__gnu_cxx12_Lock_policyE1EED0Ev@Base 1.10.0
 (optional=templinst|arch=armel)_ZNSt23_Sp_counted_ptr_inplaceINSt7__cxx1118basic_stringstreamIcSt11char_traitsIcESaIcEEESaIS5_ELN9__gnu_cxx12_Lock_policyE1EED1Ev@Base 1.10.0
 (optional=templinst|arch=armel)_ZNSt23_Sp_counted_ptr_inplaceINSt7__cxx1118basic_stringstreamIcSt11char_traitsIcESaIcEEESaIS5_ELN9__gnu_cxx12_Lock_policyE1EED2Ev@Base 1.10.0
 (optional=templinst|arch=!armel)_ZNSt23_Sp_counted_ptr_inplaceINSt7__cxx1118basic_stringstreamIcSt11char_traitsIcESaIcEEESaIS5_ELN9__gnu_cxx12_Lock_policyE2EE10_M_destroyEv@Base 1.10.0
 (optional=templinst|arch=!armel)_ZNSt23_Sp_counted_ptr_inplaceINSt7__cxx1118basic_stringstreamIcSt11char_traitsIcESaIcEEESaIS5_ELN9__gnu_cxx12_Lock_policyE2EE10_M_disposeEv@Base 1.10.0
 (optional=templinst|arch=!armel)_ZNSt23_Sp_counted_ptr_inplaceINSt7__cxx1118basic_stringstreamIcSt11char_traitsIcESaIcEEESaIS5_ELN9__gnu_cxx12_Lock_policyE2EE14_M_get_deleterERKSt9type_info@Base 1.10.0
 (optional=templinst|arch=!armel)_ZNSt23_Sp_counted_ptr_inplaceINSt7__cxx1118basic_stringstreamIcSt11char_traitsIcESaIcEEESaIS5_ELN9__gnu_cxx12_Lock_policyE2EED0Ev@Base 1.10.0
 (optional=templinst|arch=!armel)_ZNSt23_Sp_counted_ptr_inplaceINSt7__cxx1118basic_stringstreamIcSt11char_traitsIcESaIcEEESaIS5_ELN9__gnu_cxx12_Lock_policyE2EED1Ev@Base 1.10.0
 (optional=templinst|arch=!armel)_ZNSt23_Sp_counted_ptr_inplaceINSt7__cxx1118basic_stringstreamIcSt11char_traitsIcESaIcEEESaIS5_ELN9__gnu_cxx12_Lock_policyE2EED2Ev@Base 1.10.0
 (optional=templinst|arch=armel)_ZNSt23_Sp_counted_ptr_inplaceINSt8__detail4_NFAINSt7__cxx1112regex_traitsIcEEEESaIS5_ELN9__gnu_cxx12_Lock_policyE1EE10_M_destroyEv@Base 1.10.0
 (optional=templinst|arch=armel)_ZNSt23_Sp_counted_ptr_inplaceINSt8__detail4_NFAINSt7__cxx1112regex_traitsIcEEEESaIS5_ELN9__gnu_cxx12_Lock_policyE1EE10_M_disposeEv@Base 1.10.0
 (optional=templinst|arch=armel)_ZNSt23_Sp_counted_ptr_inplaceINSt8__detail4_NFAINSt7__cxx1112regex_traitsIcEEEESaIS5_ELN9__gnu_cxx12_Lock_policyE1EE14_M_get_deleterERKSt9type_info@Base 1.10.0
 (optional=templinst|arch=armel)_ZNSt23_Sp_counted_ptr_inplaceINSt8__detail4_NFAINSt7__cxx1112regex_traitsIcEEEESaIS5_ELN9__gnu_cxx12_Lock_policyE1EED0Ev@Base 1.10.0
 (optional=templinst|arch=armel)_ZNSt23_Sp_counted_ptr_inplaceINSt8__detail4_NFAINSt7__cxx1112regex_traitsIcEEEESaIS5_ELN9__gnu_cxx12_Lock_policyE1EED1Ev@Base 1.10.0
 (optional=templinst|arch=armel)_ZNSt23_Sp_counted_ptr_inplaceINSt8__detail4_NFAINSt7__cxx1112regex_traitsIcEEEESaIS5_ELN9__gnu_cxx12_Lock_policyE1EED2Ev@Base 1.10.0
 (optional=templinst|arch=!armel)_ZNSt23_Sp_counted_ptr_inplaceINSt8__detail4_NFAINSt7__cxx1112regex_traitsIcEEEESaIS5_ELN9__gnu_cxx12_Lock_policyE2EE10_M_destroyEv@Base 1.10.0
 (optional=templinst|arch=!armel)_ZNSt23_Sp_counted_ptr_inplaceINSt8__detail4_NFAINSt7__cxx1112regex_traitsIcEEEESaIS5_ELN9__gnu_cxx12_Lock_policyE2EE10_M_disposeEv@Base 1.10.0
 (optional=templinst|arch=!armel)_ZNSt23_Sp_counted_ptr_inplaceINSt8__detail4_NFAINSt7__cxx1112regex_traitsIcEEEESaIS5_ELN9__gnu_cxx12_Lock_policyE2EE14_M_get_deleterERKSt9type_info@Base 1.10.0
 (optional=templinst|arch=!armel)_ZNSt23_Sp_counted_ptr_inplaceINSt8__detail4_NFAINSt7__cxx1112regex_traitsIcEEEESaIS5_ELN9__gnu_cxx12_Lock_policyE2EED0Ev@Base 1.10.0
 (optional=templinst|arch=!armel)_ZNSt23_Sp_counted_ptr_inplaceINSt8__detail4_NFAINSt7__cxx1112regex_traitsIcEEEESaIS5_ELN9__gnu_cxx12_Lock_policyE2EED1Ev@Base 1.10.0
 (optional=templinst|arch=!armel)_ZNSt23_Sp_counted_ptr_inplaceINSt8__detail4_NFAINSt7__cxx1112regex_traitsIcEEEESaIS5_ELN9__gnu_cxx12_Lock_policyE2EED2Ev@Base 1.10.0
 (optional=templinst)_ZNSt5dequeI7QStringSaIS0_EE12emplace_backIJS0_EEEvDpOT_@Base 1.10.0
 (optional=templinst)_ZNSt5dequeI7QStringSaIS0_EE15_M_pop_back_auxEv@Base 1.10.0
 (optional=templinst)_ZNSt5dequeI7QStringSaIS0_EED1Ev@Base 1.10.0
 (optional=templinst)_ZNSt5dequeI7QStringSaIS0_EED2Ev@Base 1.10.0
 (optional=templinst)_ZNSt5dequeIN3qbs8Internal11QualifiedIdESaIS2_EE16_M_push_back_auxIJRKS2_EEEvDpOT_@Base 1.10.0
 (optional=templinst)_ZNSt5dequeINSt8__detail9_StateSeqINSt7__cxx1112regex_traitsIcEEEESaIS5_EE12emplace_backIJS5_EEEvDpOT_@Base 1.10.0
 (optional=templinst)_ZNSt5dequeINSt8__detail9_StateSeqINSt7__cxx1112regex_traitsIcEEEESaIS5_EE16_M_push_back_auxIJRKS5_EEEvDpOT_@Base 1.10.0
 (optional=templinst)_ZNSt5dequeINSt8__detail9_StateSeqINSt7__cxx1112regex_traitsIcEEEESaIS5_EE17_M_reallocate_mapEmb@Base 1.10.1
 (optional=templinst)_ZNSt5dequeINSt8__detail9_StateSeqINSt7__cxx1112regex_traitsIcEEEESaIS5_EE9push_backERKS5_@Base 1.10.0
 (optional=templinst)_ZNSt5dequeIlSaIlEE16_M_push_back_auxIJRKlEEEvDpOT_@Base 1.10.0
 (optional=templinst)_ZNSt6vectorI10QByteArraySaIS0_EE17_M_realloc_insertIJRKS0_EEEvN9__gnu_cxx17__normal_iteratorIPS0_S2_EEDpOT_@Base 1.10.0
 (optional=templinst|subst)_ZNSt6vectorI7QStringSaIS0_EE17_M_default_appendE{size_t}@Base 1.8.0
 (optional=templinst)_ZNSt6vectorI7QStringSaIS0_EE17_M_realloc_insertIJRKS0_EEEvN9__gnu_cxx17__normal_iteratorIPS0_S2_EEDpOT_@Base 1.8.1
 (optional=templinst)_ZNSt6vectorI7QStringSaIS0_EE17_M_realloc_insertIJS0_EEEvN9__gnu_cxx17__normal_iteratorIPS0_S2_EEDpOT_@Base 1.10.0
 (optional=templinst)_ZNSt6vectorI7QStringSaIS0_EE6insertEN9__gnu_cxx17__normal_iteratorIPKS0_S2_EERS5_@Base 1.8.0
 (optional=templinst)_ZNSt6vectorI7QStringSaIS0_EED1Ev@Base 1.8.0
 (optional=templinst)_ZNSt6vectorI7QStringSaIS0_EED2Ev@Base 1.8.0
 (optional=templinst)_ZNSt6vectorI7QStringSaIS0_EEaSERKS2_@Base 1.8.0
 (optional=templinst)_ZNSt6vectorIN3qbs8Internal11CommandLine8ArgumentESaIS3_EE12emplace_backIJS3_EEEvDpOT_@Base 1.10.0
 (optional=templinst)_ZNSt6vectorIN3qbs8Internal11CommandLine8ArgumentESaIS3_EE17_M_realloc_insertIJRKS3_EEEvN9__gnu_cxx17__normal_iteratorIPS3_S5_EEDpOT_@Base 1.8.1
 (optional=templinst)_ZNSt6vectorIN3qbs8Internal11CommandLine8ArgumentESaIS3_EE17_M_realloc_insertIJS3_EEEvN9__gnu_cxx17__normal_iteratorIPS3_S5_EEDpOT_@Base 1.8.1
 (optional=templinst)_ZNSt6vectorIN3qbs8Internal11QualifiedIdESaIS2_EE17_M_realloc_insertIJRKS2_EEEvN9__gnu_cxx17__normal_iteratorIPS2_S4_EEDpOT_@Base 1.10.0
 (optional=templinst)_ZNSt6vectorIN3qbs8Internal11QualifiedIdESaIS2_EEC1ERKS4_@Base 1.10.0
 (optional=templinst)_ZNSt6vectorIN3qbs8Internal11QualifiedIdESaIS2_EEC2ERKS4_@Base 1.10.0
 (optional=templinst)_ZNSt6vectorIN3qbs8Internal11QualifiedIdESaIS2_EED1Ev@Base 1.10.0
 (optional=templinst)_ZNSt6vectorIN3qbs8Internal11QualifiedIdESaIS2_EED2Ev@Base 1.10.0
 (optional=templinst)_ZNSt6vectorIN3qbs8Internal16QbsPluginManager9QbsPluginESaIS3_EE17_M_realloc_insertIJS3_EEEvN9__gnu_cxx17__normal_iteratorIPS3_S5_EEDpOT_@Base 1.10.0
 (optional=templinst)_ZNSt6vectorIN3qbs8Internal23VisualStudioVersionInfoESaIS2_EE17_M_realloc_insertIJRKS2_EEEvN9__gnu_cxx17__normal_iteratorIPS2_S4_EEDpOT_@Base 1.8.1
 (optional=templinst|arch=armel armhf i386 mips mips64el mipsel powerpc ppc64 ppc64el s390x)_ZNSt6vectorIN3qbs8Internal4Item6ModuleESaIS3_EE13_M_insert_auxIS3_EEvN9__gnu_cxx17__normal_iteratorIPS3_S5_EEOT_@Base 1.10.0
 (optional=templinst)_ZNSt6vectorIN3qbs8Internal4Item6ModuleESaIS3_EE17_M_realloc_insertIJRKS3_EEEvN9__gnu_cxx17__normal_iteratorIPS3_S5_EEDpOT_@Base 1.10.0
 (optional=templinst)_ZNSt6vectorIN3qbs8Internal4Item6ModuleESaIS3_EED1Ev@Base 1.10.0
 (optional=templinst)_ZNSt6vectorIN3qbs8Internal4Item6ModuleESaIS3_EED2Ev@Base 1.10.0
 (optional=templinst)_ZNSt6vectorIN3qbs8Internal4Item6ModuleESaIS3_EEaSERKS5_@Base 1.10.0
 (optional=templinst)_ZNSt6vectorIN3qbs8Internal8ItemTypeESaIS2_EE17_M_realloc_insertIJRKS2_EEEvN9__gnu_cxx17__normal_iteratorIPS2_S4_EEDpOT_@Base 1.8.1
 (optional=templinst)_ZNSt6vectorIN3qbs8Internal8ItemTypeESaIS2_EEaSERKS4_@Base 1.8.0
 (optional=templinst)_ZNSt6vectorIN3qbs9ErrorInfoESaIS1_EE17_M_realloc_insertIJ7QStringEEEvN9__gnu_cxx17__normal_iteratorIPS1_S3_EEDpOT_@Base 1.10.1
 (optional=templinst)_ZNSt6vectorINSt7__cxx1112basic_stringIcSt11char_traitsIcESaIcEEESaIS5_EE17_M_realloc_insertIJRKS5_EEEvN9__gnu_cxx17__normal_iteratorIPS5_S7_EEDpOT_@Base 1.10.0
 (optional=templinst|arch=powerpc ppc64)_ZNSt6vectorINSt7__cxx1112basic_stringIcSt11char_traitsIcESaIcEEESaIS5_EE9push_backERKS5_@Base 1.10.0
 (optional=templinst)_ZNSt6vectorINSt7__cxx1112basic_stringIcSt11char_traitsIcESaIcEEESaIS5_EEC1ERKS7_@Base 1.10.0
 (optional=templinst)_ZNSt6vectorINSt7__cxx1112basic_stringIcSt11char_traitsIcESaIcEEESaIS5_EEC2ERKS7_@Base 1.10.0
 (optional=templinst)_ZNSt6vectorINSt7__cxx1112basic_stringIcSt11char_traitsIcESaIcEEESaIS5_EED1Ev@Base 1.10.0
 (optional=templinst)_ZNSt6vectorINSt7__cxx1112basic_stringIcSt11char_traitsIcESaIcEEESaIS5_EED2Ev@Base 1.10.0
 (optional=templinst)_ZNSt6vectorINSt7__cxx1112regex_traitsIcE10_RegexMaskESaIS3_EE17_M_realloc_insertIJRKS3_EEEvN9__gnu_cxx17__normal_iteratorIPS3_S5_EEDpOT_@Base 1.10.0
 (optional=templinst|subst)_ZNSt6vectorINSt7__cxx119sub_matchIN9__gnu_cxx17__normal_iteratorIPKcNS0_12basic_stringIcSt11char_traitsIcESaIcEEEEEEESaISC_EE17_M_default_appendE{size_t}@Base 1.10.0
 (optional=templinst)_ZNSt6vectorINSt7__cxx119sub_matchIN9__gnu_cxx17__normal_iteratorIPKcNS0_12basic_stringIcSt11char_traitsIcESaIcEEEEEEESaISC_EEaSERKSE_@Base 1.10.0
 (optional=templinst)_ZNSt6vectorINSt8__detail6_StateIcEESaIS2_EE17_M_realloc_insertIJS2_EEEvN9__gnu_cxx17__normal_iteratorIPS2_S4_EEDpOT_@Base 1.10.0
 (optional=templinst)_ZNSt6vectorIPKN3qbs8Internal4ItemESaIS4_EE17_M_realloc_insertIJRKS4_EEEvN9__gnu_cxx17__normal_iteratorIPS4_S6_EEDpOT_@Base 1.10.0
 (optional=templinst)_ZNSt6vectorIPN3qbs8Internal15ResolvedProductESaIS3_EE17_M_realloc_insertIJRKS3_EEEvN9__gnu_cxx17__normal_iteratorIPS3_S5_EEDpOT_@Base 1.10.0
 (optional=templinst)_ZNSt6vectorIPN3qbs8Internal15ResolvedProductESaIS3_EE6insertEN9__gnu_cxx17__normal_iteratorIPKS3_S5_EERS8_@Base 1.10.0
 (optional=templinst)_ZNSt6vectorIPN3qbs8Internal15ResolvedProductESaIS3_EEaSERKS5_@Base 1.10.0
 (optional=templinst)_ZNSt6vectorIPN3qbs8Internal4ItemESaIS3_EE17_M_realloc_insertIJRKS3_EEEvN9__gnu_cxx17__normal_iteratorIPS3_S5_EEDpOT_@Base 1.10.0
 (optional=templinst)_ZNSt6vectorIPN3qbs8Internal8ArtifactESaIS3_EE17_M_realloc_insertIJRKS3_EEEvN9__gnu_cxx17__normal_iteratorIPS3_S5_EEDpOT_@Base 1.10.0
 (optional=templinst)_ZNSt6vectorIPN3qbs8Internal8ArtifactESaIS3_EE17_M_realloc_insertIJS3_EEEvN9__gnu_cxx17__normal_iteratorIPS3_S5_EEDpOT_@Base 1.10.0
 (optional=templinst)_ZNSt6vectorIPN3qbs8Internal8ArtifactESaIS3_EE6insertEN9__gnu_cxx17__normal_iteratorIPKS3_S5_EERS8_@Base 1.10.0
 (optional=templinst|subst)_ZNSt6vectorIPN3qbs8Internal8ArtifactESaIS3_EE7reserveE{size_t}@Base 1.10.0
 (optional=templinst|arch=amd64 arm64 mips64el ppc64 ppc64el s390x)_ZNSt6vectorIPN3qbs8Internal8ArtifactESaIS3_EEC1ERKS5_@Base 1.10.0
 (optional=templinst|arch=amd64 arm64 mips64el ppc64 ppc64el s390x)_ZNSt6vectorIPN3qbs8Internal8ArtifactESaIS3_EEC2ERKS5_@Base 1.10.0
 (optional=templinst)_ZNSt6vectorIPN3qbs8Internal8ArtifactESaIS3_EEaSERKS5_@Base 1.10.0
 (optional=templinst|subst)_ZNSt6vectorIS_IiSaIiEESaIS1_EE17_M_default_appendE{size_t}@Base 1.8.0
 (optional=templinst)_ZNSt6vectorISt10shared_ptrIN3qbs8Internal15ResolvedProjectEESaIS4_EE17_M_realloc_insertIJRKS4_EEEvN9__gnu_cxx17__normal_iteratorIPS4_S6_EEDpOT_@Base 1.10.0
 (optional=templinst)_ZNSt6vectorISt10shared_ptrIN3qbs8Internal15ResolvedProjectEESaIS4_EED1Ev@Base 1.10.0
 (optional=templinst)_ZNSt6vectorISt10shared_ptrIN3qbs8Internal15ResolvedProjectEESaIS4_EED2Ev@Base 1.10.0
 (optional=templinst)_ZNSt6vectorISt4pairI7QStringN3qbs8Internal8FileTimeEESaIS5_EE12emplace_backIJS5_EEEvDpOT_@Base 1.10.0
 (optional=templinst)_ZNSt6vectorISt4pairI7QStringN3qbs8Internal8FileTimeEESaIS5_EE17_M_realloc_insertIJS5_EEEvN9__gnu_cxx17__normal_iteratorIPS5_S7_EEDpOT_@Base 1.10.0
 (optional=templinst|subst)_ZNSt6vectorISt4pairI7QStringN3qbs8Internal8FileTimeEESaIS5_EE7reserveE{size_t}@Base 1.10.0
 (optional=templinst)_ZNSt6vectorISt4pairI7QStringS1_ESaIS2_EE17_M_realloc_insertIJS2_EEEvN9__gnu_cxx17__normal_iteratorIPS2_S4_EEDpOT_@Base 1.8.1
 (optional=templinst)_ZNSt6vectorISt4pairI7QStringS1_ESaIS2_EED1Ev@Base 1.8.0
 (optional=templinst)_ZNSt6vectorISt4pairI7QStringS1_ESaIS2_EED2Ev@Base 1.8.0
 (optional=templinst)_ZNSt6vectorISt4pairINSt7__cxx1112basic_stringIcSt11char_traitsIcESaIcEEES6_ESaIS7_EE12emplace_backIJS7_EEEvDpOT_@Base 1.10.0
 (optional=templinst)_ZNSt6vectorISt4pairINSt7__cxx1112basic_stringIcSt11char_traitsIcESaIcEEES6_ESaIS7_EE17_M_realloc_insertIJS7_EEEvN9__gnu_cxx17__normal_iteratorIPS7_S9_EEDpOT_@Base 1.10.0
 (optional=templinst)_ZNSt6vectorISt4pairINSt7__cxx1112basic_stringIcSt11char_traitsIcESaIcEEES6_ESaIS7_EED1Ev@Base 1.10.0
 (optional=templinst)_ZNSt6vectorISt4pairINSt7__cxx1112basic_stringIcSt11char_traitsIcESaIcEEES6_ESaIS7_EED2Ev@Base 1.10.0
 (optional=templinst)_ZNSt6vectorISt4pairIccESaIS1_EE12emplace_backIJS1_EEEvDpOT_@Base 1.10.0
 (optional=templinst)_ZNSt6vectorISt4pairIccESaIS1_EE17_M_realloc_insertIJS1_EEEvN9__gnu_cxx17__normal_iteratorIPS1_S3_EEDpOT_@Base 1.10.0
 (optional=templinst)_ZNSt6vectorISt4pairIlS_INSt7__cxx119sub_matchIN9__gnu_cxx17__normal_iteratorIPKcNS1_12basic_stringIcSt11char_traitsIcESaIcEEEEEEESaISD_EEESaISG_EE12emplace_backIJRlRKSF_EEEvDpOT_@Base 1.10.0
 (optional=templinst)_ZNSt6vectorISt4pairIlS_INSt7__cxx119sub_matchIN9__gnu_cxx17__normal_iteratorIPKcNS1_12basic_stringIcSt11char_traitsIcESaIcEEEEEEESaISD_EEESaISG_EE17_M_realloc_insertIJRlRKSF_EEEvNS4_IPSG_SI_EEDpOT_@Base 1.10.0
 (optional=templinst)_ZNSt6vectorISt4pairIlS_INSt7__cxx119sub_matchIN9__gnu_cxx17__normal_iteratorIPKcNS1_12basic_stringIcSt11char_traitsIcESaIcEEEEEEESaISD_EEESaISG_EED1Ev@Base 1.10.0
 (optional=templinst)_ZNSt6vectorISt4pairIlS_INSt7__cxx119sub_matchIN9__gnu_cxx17__normal_iteratorIPKcNS1_12basic_stringIcSt11char_traitsIcESaIcEEEEEEESaISD_EEESaISG_EED2Ev@Base 1.10.0
 (optional=templinst)_ZNSt6vectorIbSaIbEE13_M_insert_auxESt13_Bit_iteratorb@Base 1.10.0
 (optional=templinst)_ZNSt6vectorIcSaIcEE12emplace_backIJcEEEvDpOT_@Base 1.10.0
 (optional=templinst)_ZNSt6vectorIcSaIcEE8_M_eraseEN9__gnu_cxx17__normal_iteratorIPcS1_EES5_@Base 1.10.0
 (optional=templinst)_ZNSt6vectorIiSaIiEE17_M_realloc_insertIJRKiEEEvN9__gnu_cxx17__normal_iteratorIPiS1_EEDpOT_@Base 1.8.1
 (optional=templinst|subst)_ZNSt6vectorI{size_t}SaI{size_t}EE17_M_realloc_insertIJRK{size_t}EEEvN9__gnu_cxx17__normal_iteratorIP{size_t}S1_EEDpOT_@Base 1.10.0
 (optional=templinst)_ZNSt7__cxx1111basic_regexIcNS_12regex_traitsIcEEED1Ev@Base 1.10.0
 (optional=templinst)_ZNSt7__cxx1111basic_regexIcNS_12regex_traitsIcEEED2Ev@Base 1.10.0
 (optional=templinst)_ZNSt7__cxx1112basic_stringIcSt11char_traitsIcESaIcEE12_M_constructISt19istreambuf_iteratorIcS2_EEEvT_S8_St18input_iterator_tag@Base 1.10.0
 (optional=templinst)_ZNSt7__cxx1114regex_iteratorIN9__gnu_cxx17__normal_iteratorIPKcNS_12basic_stringIcSt11char_traitsIcESaIcEEEEEcNS_12regex_traitsIcEEEppEv@Base 1.10.0
 (optional=templinst)_ZNSt8_Rb_treeI7QStringS0_St9_IdentityIS0_ESt4lessIS0_ESaIS0_EE8_M_eraseEPSt13_Rb_tree_nodeIS0_E@Base 1.8.0
 (optional=templinst)_ZNSt8_Rb_treeIlSt4pairIKllESt10_Select1stIS2_ESt4lessIlESaIS2_EE24_M_get_insert_unique_posERS1_@Base 1.10.0
 (optional=templinst|arch=amd64 arm64 mips64el ppc64el)_ZNSt8_Rb_treeIlSt4pairIKllESt10_Select1stIS2_ESt4lessIlESaIS2_EE29_M_get_insert_hint_unique_posESt23_Rb_tree_const_iteratorIS2_ERS1_@Base 1.10.0
 (optional=templinst)_ZNSt8_Rb_treeIlSt4pairIKllESt10_Select1stIS2_ESt4lessIlESaIS2_EE8_M_eraseEPSt13_Rb_tree_nodeIS2_E@Base 1.10.0
 (optional=templinst|arch=amd64 i386)_ZNSt8__detail15_BracketMatcherINSt7__cxx1112regex_traitsIcEELb0ELb0EE22_M_add_character_classERKNS1_12basic_stringIcSt11char_traitsIcESaIcEEEb@Base 1.10.0
 (optional=templinst|arch=mips mipsel)_ZNSt8__detail15_BracketMatcherINSt7__cxx1112regex_traitsIcEELb0ELb0EE8_M_readyEv@Base 1.10.0
 (optional=templinst)_ZNSt8__detail15_BracketMatcherINSt7__cxx1112regex_traitsIcEELb0ELb1EE13_M_make_rangeEcc@Base 1.10.0
 (optional=templinst|arch=amd64 i386)_ZNSt8__detail15_BracketMatcherINSt7__cxx1112regex_traitsIcEELb0ELb1EE22_M_add_character_classERKNS1_12basic_stringIcSt11char_traitsIcESaIcEEEb@Base 1.10.0
 (optional=templinst)_ZNSt8__detail15_BracketMatcherINSt7__cxx1112regex_traitsIcEELb0ELb1EE8_M_readyEv@Base 1.10.0
 (optional=templinst|arch=amd64 i386)_ZNSt8__detail15_BracketMatcherINSt7__cxx1112regex_traitsIcEELb1ELb0EE22_M_add_character_classERKNS1_12basic_stringIcSt11char_traitsIcESaIcEEEb@Base 1.10.0
 (optional=templinst)_ZNSt8__detail15_BracketMatcherINSt7__cxx1112regex_traitsIcEELb1ELb0EE8_M_readyEv@Base 1.10.0
 (optional=templinst)_ZNSt8__detail15_BracketMatcherINSt7__cxx1112regex_traitsIcEELb1ELb1EE13_M_make_rangeEcc@Base 1.10.0
 (optional=templinst|arch=amd64 i386)_ZNSt8__detail15_BracketMatcherINSt7__cxx1112regex_traitsIcEELb1ELb1EE22_M_add_character_classERKNS1_12basic_stringIcSt11char_traitsIcESaIcEEEb@Base 1.10.0
 (optional=templinst)_ZNSt8__detail15_BracketMatcherINSt7__cxx1112regex_traitsIcEELb1ELb1EE8_M_readyEv@Base 1.10.0
 (optional=templinst)_ZNSt8__detail17__regex_algo_implIN9__gnu_cxx17__normal_iteratorIPKcNSt7__cxx1112basic_stringIcSt11char_traitsIcESaIcEEEEESaINS5_9sub_matchISB_EEEcNS5_12regex_traitsIcEELNS_20_RegexExecutorPolicyE0ELb0EEEbT_SI_RNS5_13match_resultsISI_T0_EERKNS5_11basic_regexIT1_T2_EENSt15regex_constants15match_flag_typeE@Base 1.10.0
 (optional=templinst)_ZNSt8__detail17__regex_algo_implIN9__gnu_cxx17__normal_iteratorIPKcNSt7__cxx1112basic_stringIcSt11char_traitsIcESaIcEEEEESaINS5_9sub_matchISB_EEEcNS5_12regex_traitsIcEELNS_20_RegexExecutorPolicyE0ELb1EEEbT_SI_RNS5_13match_resultsISI_T0_EERKNS5_11basic_regexIT1_T2_EENSt15regex_constants15match_flag_typeE@Base 1.10.0
 (optional=templinst)_ZNSt8__detail4_NFAINSt7__cxx1112regex_traitsIcEEE15_M_insert_dummyEv@Base 1.10.0
 (optional=templinst)_ZNSt8__detail4_NFAINSt7__cxx1112regex_traitsIcEEE15_M_insert_stateENS_6_StateIcEE@Base 1.10.0
 (optional=templinst)_ZNSt8__detail4_NFAINSt7__cxx1112regex_traitsIcEEE16_M_insert_repeatEllb@Base 1.10.0
 (optional=templinst|subst)_ZNSt8__detail4_NFAINSt7__cxx1112regex_traitsIcEEE17_M_insert_backrefE{size_t}@Base 1.10.0
 (optional=templinst)_ZNSt8__detail4_NFAINSt7__cxx1112regex_traitsIcEEE17_M_insert_matcherESt8functionIFbcEE@Base 1.10.0
 (optional=templinst)_ZNSt8__detail4_NFAINSt7__cxx1112regex_traitsIcEEE18_M_eliminate_dummyEv@Base 1.10.0
 (optional=templinst)_ZNSt8__detail4_NFAINSt7__cxx1112regex_traitsIcEEE21_M_insert_subexpr_endEv@Base 1.10.0
 (optional=templinst)_ZNSt8__detail4_NFAINSt7__cxx1112regex_traitsIcEEE23_M_insert_subexpr_beginEv@Base 1.10.0
 (optional=templinst)_ZNSt8__detail6_StateIcEC1EOS1_@Base 1.10.0
 (optional=templinst)_ZNSt8__detail6_StateIcEC2EOS1_@Base 1.10.0
 (optional=templinst)_ZNSt8__detail6_StateIcED1Ev@Base 1.10.0
 (optional=templinst)_ZNSt8__detail6_StateIcED2Ev@Base 1.10.0
 (optional=templinst)_ZNSt8__detail8_ScannerIcE10_M_advanceEv@Base 1.10.0
 (optional=templinst)_ZNSt8__detail8_ScannerIcE12_M_eat_classEc@Base 1.10.0
 (optional=templinst)_ZNSt8__detail8_ScannerIcE14_M_scan_normalEv@Base 1.10.0
 (optional=templinst)_ZNSt8__detail8_ScannerIcE16_M_scan_in_braceEv@Base 1.10.0
 (optional=templinst)_ZNSt8__detail8_ScannerIcE17_M_eat_escape_awkEv@Base 1.10.0
 (optional=templinst)_ZNSt8__detail8_ScannerIcE18_M_eat_escape_ecmaEv@Base 1.10.0
 (optional=templinst)_ZNSt8__detail8_ScannerIcE18_M_scan_in_bracketEv@Base 1.10.0
 (optional=templinst)_ZNSt8__detail8_ScannerIcE19_M_eat_escape_posixEv@Base 1.10.0
 (optional=templinst|arch=!mips !mipsel)_ZNSt8__detail8_ScannerIcEC1EPKcS3_NSt15regex_constants18syntax_option_typeESt6locale@Base 1.10.0
 (optional=templinst|arch=!mips !mipsel)_ZNSt8__detail8_ScannerIcEC2EPKcS3_NSt15regex_constants18syntax_option_typeESt6locale@Base 1.10.0
 (optional=templinst)_ZNSt8__detail9_CompilerINSt7__cxx1112regex_traitsIcEEE11_M_try_charEv@Base 1.10.0
 (optional=templinst)_ZNSt8__detail9_CompilerINSt7__cxx1112regex_traitsIcEEE12_M_assertionEv@Base 1.10.0
 (optional=templinst)_ZNSt8__detail9_CompilerINSt7__cxx1112regex_traitsIcEEE13_M_quantifierEv@Base 1.10.0
 (optional=templinst)_ZNSt8__detail9_CompilerINSt7__cxx1112regex_traitsIcEEE14_M_alternativeEv@Base 1.10.0
 (optional=templinst)_ZNSt8__detail9_CompilerINSt7__cxx1112regex_traitsIcEEE14_M_disjunctionEv@Base 1.10.0
 (optional=templinst)_ZNSt8__detail9_CompilerINSt7__cxx1112regex_traitsIcEEE16_M_cur_int_valueEi@Base 1.10.0
 (optional=templinst)_ZNSt8__detail9_CompilerINSt7__cxx1112regex_traitsIcEEE18_M_expression_termILb0ELb0EEEbRSt4pairIbcERNS_15_BracketMatcherIS3_XT_EXT0_EEE@Base 1.10.0
 (optional=templinst)_ZNSt8__detail9_CompilerINSt7__cxx1112regex_traitsIcEEE18_M_expression_termILb0ELb1EEEbRSt4pairIbcERNS_15_BracketMatcherIS3_XT_EXT0_EEE@Base 1.10.0
 (optional=templinst)_ZNSt8__detail9_CompilerINSt7__cxx1112regex_traitsIcEEE18_M_expression_termILb1ELb0EEEbRSt4pairIbcERNS_15_BracketMatcherIS3_XT_EXT0_EEE@Base 1.10.0
 (optional=templinst)_ZNSt8__detail9_CompilerINSt7__cxx1112regex_traitsIcEEE18_M_expression_termILb1ELb1EEEbRSt4pairIbcERNS_15_BracketMatcherIS3_XT_EXT0_EEE@Base 1.10.0
 (optional=templinst)_ZNSt8__detail9_CompilerINSt7__cxx1112regex_traitsIcEEE21_M_bracket_expressionEv@Base 1.10.0
 (optional=templinst)_ZNSt8__detail9_CompilerINSt7__cxx1112regex_traitsIcEEE22_M_insert_char_matcherILb0ELb0EEEvv@Base 1.10.0
 (optional=templinst)_ZNSt8__detail9_CompilerINSt7__cxx1112regex_traitsIcEEE22_M_insert_char_matcherILb0ELb1EEEvv@Base 1.10.0
 (optional=templinst)_ZNSt8__detail9_CompilerINSt7__cxx1112regex_traitsIcEEE22_M_insert_char_matcherILb1ELb0EEEvv@Base 1.10.0
 (optional=templinst)_ZNSt8__detail9_CompilerINSt7__cxx1112regex_traitsIcEEE22_M_insert_char_matcherILb1ELb1EEEvv@Base 1.10.0
 (optional=templinst)_ZNSt8__detail9_CompilerINSt7__cxx1112regex_traitsIcEEE25_M_insert_bracket_matcherILb0ELb0EEEvb@Base 1.10.0
 (optional=templinst)_ZNSt8__detail9_CompilerINSt7__cxx1112regex_traitsIcEEE25_M_insert_bracket_matcherILb0ELb1EEEvb@Base 1.10.0
 (optional=templinst)_ZNSt8__detail9_CompilerINSt7__cxx1112regex_traitsIcEEE25_M_insert_bracket_matcherILb1ELb0EEEvb@Base 1.10.0
 (optional=templinst)_ZNSt8__detail9_CompilerINSt7__cxx1112regex_traitsIcEEE25_M_insert_bracket_matcherILb1ELb1EEEvb@Base 1.10.0
 (optional=templinst)_ZNSt8__detail9_CompilerINSt7__cxx1112regex_traitsIcEEE26_M_insert_any_matcher_ecmaILb0ELb0EEEvv@Base 1.10.0
 (optional=templinst)_ZNSt8__detail9_CompilerINSt7__cxx1112regex_traitsIcEEE26_M_insert_any_matcher_ecmaILb0ELb1EEEvv@Base 1.10.0
 (optional=templinst)_ZNSt8__detail9_CompilerINSt7__cxx1112regex_traitsIcEEE26_M_insert_any_matcher_ecmaILb1ELb0EEEvv@Base 1.10.0
 (optional=templinst)_ZNSt8__detail9_CompilerINSt7__cxx1112regex_traitsIcEEE26_M_insert_any_matcher_ecmaILb1ELb1EEEvv@Base 1.10.0
 (optional=templinst)_ZNSt8__detail9_CompilerINSt7__cxx1112regex_traitsIcEEE27_M_insert_any_matcher_posixILb0ELb0EEEvv@Base 1.10.0
 (optional=templinst)_ZNSt8__detail9_CompilerINSt7__cxx1112regex_traitsIcEEE27_M_insert_any_matcher_posixILb0ELb1EEEvv@Base 1.10.0
 (optional=templinst)_ZNSt8__detail9_CompilerINSt7__cxx1112regex_traitsIcEEE27_M_insert_any_matcher_posixILb1ELb0EEEvv@Base 1.10.0
 (optional=templinst)_ZNSt8__detail9_CompilerINSt7__cxx1112regex_traitsIcEEE27_M_insert_any_matcher_posixILb1ELb1EEEvv@Base 1.10.0
 (optional=templinst)_ZNSt8__detail9_CompilerINSt7__cxx1112regex_traitsIcEEE33_M_insert_character_class_matcherILb0ELb0EEEvv@Base 1.10.0
 (optional=templinst)_ZNSt8__detail9_CompilerINSt7__cxx1112regex_traitsIcEEE33_M_insert_character_class_matcherILb0ELb1EEEvv@Base 1.10.0
 (optional=templinst)_ZNSt8__detail9_CompilerINSt7__cxx1112regex_traitsIcEEE33_M_insert_character_class_matcherILb1ELb0EEEvv@Base 1.10.0
 (optional=templinst)_ZNSt8__detail9_CompilerINSt7__cxx1112regex_traitsIcEEE33_M_insert_character_class_matcherILb1ELb1EEEvv@Base 1.10.0
 (optional=templinst)_ZNSt8__detail9_CompilerINSt7__cxx1112regex_traitsIcEEE6_M_popEv@Base 1.10.0
 (optional=templinst)_ZNSt8__detail9_CompilerINSt7__cxx1112regex_traitsIcEEE7_M_atomEv@Base 1.10.0
 (optional=templinst)_ZNSt8__detail9_CompilerINSt7__cxx1112regex_traitsIcEEEC1EPKcS6_RKSt6localeNSt15regex_constants18syntax_option_typeE@Base 1.10.0
 (optional=templinst)_ZNSt8__detail9_CompilerINSt7__cxx1112regex_traitsIcEEEC2EPKcS6_RKSt6localeNSt15regex_constants18syntax_option_typeE@Base 1.10.0
 (optional=templinst)_ZNSt8__detail9_ExecutorIN9__gnu_cxx17__normal_iteratorIPKcNSt7__cxx1112basic_stringIcSt11char_traitsIcESaIcEEEEESaINS5_9sub_matchISB_EEENS5_12regex_traitsIcEELb0EE12_M_lookaheadEl@Base 1.10.0
 (optional=templinst)_ZNSt8__detail9_ExecutorIN9__gnu_cxx17__normal_iteratorIPKcNSt7__cxx1112basic_stringIcSt11char_traitsIcESaIcEEEEESaINS5_9sub_matchISB_EEENS5_12regex_traitsIcEELb0EE16_M_main_dispatchENSH_11_Match_modeESt17integral_constantIbLb0EE@Base 1.10.0
 (optional=templinst)_ZNSt8__detail9_ExecutorIN9__gnu_cxx17__normal_iteratorIPKcNSt7__cxx1112basic_stringIcSt11char_traitsIcESaIcEEEEESaINS5_9sub_matchISB_EEENS5_12regex_traitsIcEELb0EE16_M_rep_once_moreENSH_11_Match_modeEl@Base 1.10.0
 (optional=templinst)_ZNSt8__detail9_ExecutorIN9__gnu_cxx17__normal_iteratorIPKcNSt7__cxx1112basic_stringIcSt11char_traitsIcESaIcEEEEESaINS5_9sub_matchISB_EEENS5_12regex_traitsIcEELb0EE17_M_handle_backrefENSH_11_Match_modeEl@Base 1.10.0
 (optional=templinst)_ZNSt8__detail9_ExecutorIN9__gnu_cxx17__normal_iteratorIPKcNSt7__cxx1112basic_stringIcSt11char_traitsIcESaIcEEEEESaINS5_9sub_matchISB_EEENS5_12regex_traitsIcEELb0EE6_M_dfsENSH_11_Match_modeEl@Base 1.10.0
 (optional=templinst)_ZNSt8__detail9_ExecutorIN9__gnu_cxx17__normal_iteratorIPKcNSt7__cxx1112basic_stringIcSt11char_traitsIcESaIcEEEEESaINS5_9sub_matchISB_EEENS5_12regex_traitsIcEELb1EE12_M_lookaheadEl@Base 1.10.0
 (optional=templinst)_ZNSt8__detail9_ExecutorIN9__gnu_cxx17__normal_iteratorIPKcNSt7__cxx1112basic_stringIcSt11char_traitsIcESaIcEEEEESaINS5_9sub_matchISB_EEENS5_12regex_traitsIcEELb1EE16_M_rep_once_moreENSH_11_Match_modeEl@Base 1.10.0
 (optional=templinst)_ZNSt8__detail9_ExecutorIN9__gnu_cxx17__normal_iteratorIPKcNSt7__cxx1112basic_stringIcSt11char_traitsIcESaIcEEEEESaINS5_9sub_matchISB_EEENS5_12regex_traitsIcEELb1EE17_M_handle_backrefENSH_11_Match_modeEl@Base 1.10.0
 (optional=templinst)_ZNSt8__detail9_ExecutorIN9__gnu_cxx17__normal_iteratorIPKcNSt7__cxx1112basic_stringIcSt11char_traitsIcESaIcEEEEESaINS5_9sub_matchISB_EEENS5_12regex_traitsIcEELb1EE6_M_dfsENSH_11_Match_modeEl@Base 1.10.0
 (optional=templinst)_ZNSt8__detail9_StateSeqINSt7__cxx1112regex_traitsIcEEE8_M_cloneEv@Base 1.10.0
 (optional=templinst)_ZNSt8functionIFbcEEC1ERKS1_@Base 1.10.0
 (optional=templinst)_ZNSt8functionIFbcEEC1INSt8__detail15_BracketMatcherINSt7__cxx1112regex_traitsIcEELb0ELb0EEEvvEET_@Base 1.10.0
 (optional=templinst)_ZNSt8functionIFbcEEC1INSt8__detail15_BracketMatcherINSt7__cxx1112regex_traitsIcEELb0ELb1EEEvvEET_@Base 1.10.0
 (optional=templinst)_ZNSt8functionIFbcEEC1INSt8__detail15_BracketMatcherINSt7__cxx1112regex_traitsIcEELb1ELb0EEEvvEET_@Base 1.10.0
 (optional=templinst)_ZNSt8functionIFbcEEC1INSt8__detail15_BracketMatcherINSt7__cxx1112regex_traitsIcEELb1ELb1EEEvvEET_@Base 1.10.0
 (optional=templinst)_ZNSt8functionIFbcEEC2ERKS1_@Base 1.10.0
 (optional=templinst)_ZNSt8functionIFbcEEC2INSt8__detail15_BracketMatcherINSt7__cxx1112regex_traitsIcEELb0ELb0EEEvvEET_@Base 1.10.0
 (optional=templinst)_ZNSt8functionIFbcEEC2INSt8__detail15_BracketMatcherINSt7__cxx1112regex_traitsIcEELb0ELb1EEEvvEET_@Base 1.10.0
 (optional=templinst)_ZNSt8functionIFbcEEC2INSt8__detail15_BracketMatcherINSt7__cxx1112regex_traitsIcEELb1ELb0EEEvvEET_@Base 1.10.0
 (optional=templinst)_ZNSt8functionIFbcEEC2INSt8__detail15_BracketMatcherINSt7__cxx1112regex_traitsIcEELb1ELb1EEEvvEET_@Base 1.10.0
 (optional=templinst)_ZSt13binary_searchIN9__gnu_cxx17__normal_iteratorIPK7QStringSt6vectorIS2_SaIS2_EEEES2_EbT_S9_RKT0_@Base 1.8.0
 (optional=templinst)_ZSt13regex_replaceISt20back_insert_iteratorINSt7__cxx1112basic_stringIcSt11char_traitsIcESaIcEEEEN9__gnu_cxx17__normal_iteratorIPKcS6_EENS1_12regex_traitsIcEEcET_SF_T0_SG_RKNS1_11basic_regexIT2_T1_EEPKSI_NSt15regex_constants15match_flag_typeE@Base 1.10.0
 (optional=templinst)_ZSt4swapIN3qbs8Internal4Item6ModuleEENSt9enable_ifIXsrSt6__and_IJSt6__not_ISt15__is_tuple_likeIT_EESt21is_move_constructibleIS8_ESt18is_move_assignableIS8_EEE5valueEvE4typeERS8_SI_@Base 1.10.0
 (optional=templinst|arch=armel armhf i386 kfreebsd-i386 m68k mips mipsel powerpc powerpcspe)_ZSt4swapIN8QVariant7PrivateEENSt9enable_ifIXsrSt6__and_IJSt6__not_ISt15__is_tuple_likeIT_EESt21is_move_constructibleIS6_ESt18is_move_assignableIS6_EEE5valueEvE4typeERS6_SG_@Base 1.8.1
 (optional=templinst)_ZSteqIcEN9__gnu_cxx11__enable_ifIXsrSt9__is_charIT_E7__valueEbE6__typeERKNSt7__cxx1112basic_stringIS3_St11char_traitsIS3_ESaIS3_EEESE_@Base 1.10.0
 _ZTI11QScriptable@Base 1.2.1
 _ZTI12QScriptValue@Base 1.5.0
 _ZTIF7QStringvE@Base 1.10.0
 _ZTIFN3qbs12CodeLocationEvE@Base 1.10.0
 _ZTIMN3qbs11ProductDataEKF7QStringvE@Base 1.10.0
 _ZTIMN3qbs11ProductDataEKFNS_12CodeLocationEvE@Base 1.10.0
 _ZTIMN3qbs11ProjectDataEKF7QStringvE@Base 1.10.0
 _ZTIN3qbs10InstallJobE@Base 1.2.1
 _ZTIN3qbs11AbstractJobE@Base 1.2.1
 _ZTIN3qbs11ProductDataE@Base 1.10.0
 _ZTIN3qbs11ProjectDataE@Base 1.10.0
 _ZTIN3qbs13SettingsModelE@Base 1.4.0
 _ZTIN3qbs15SetupProjectJobE@Base 1.2.1
 _ZTIN3qbs16ProjectGeneratorE@Base 1.7.0
 _ZTIN3qbs8BuildJobE@Base 1.2.1
 _ZTIN3qbs8CleanJobE@Base 1.2.1
 _ZTIN3qbs8ILogSinkE@Base 1.2.1
 _ZTIN3qbs8Internal12ScriptEngineE@Base 1.10.0
 _ZTIN3qbs8Internal13CycleDetectorE@Base 1.10.0
 _ZTIN3qbs8Internal13ResolvedGroupE@Base 1.10.0
 _ZTIN3qbs8Internal15ResolvedProductE@Base 1.10.0
 _ZTIN3qbs8Internal15ResolvedProjectE@Base 1.10.0
 _ZTIN3qbs8Internal15TopLevelProjectE@Base 1.10.0
 _ZTIN3qbs8Internal16IdentifierSearchE@Base 1.10.0
 _ZTIN3qbs8Internal16ProductBuildDataE@Base 1.10.0
 _ZTIN3qbs8Internal16ProjectBuildDataE@Base 1.10.0
 _ZTIN3qbs8Internal19PropertyMapInternalE@Base 1.10.0
 _ZTIN3qbs8Internal8ArtifactE@Base 1.10.0
 _ZTIN3qbs8Internal9EvaluatorE@Base 1.10.0
 _ZTIN3qbs9ErrorInfoE@Base 1.2.1
 _ZTIN8QbsQmlJS3AST7VisitorE@Base 1.10.0
 (arch=armel)_ZTIN9__gnu_cxx24__concurrence_lock_errorE@Base 1.10.0
 (arch=armel)_ZTIN9__gnu_cxx26__concurrence_unlock_errorE@Base 1.10.0
 (arch=armel)_ZTIN9__gnu_cxx7__mutexE@Base 1.10.0
 _ZTINSt8__detail11_AnyMatcherINSt7__cxx1112regex_traitsIcEELb0ELb0ELb0EEE@Base 1.10.0
 _ZTINSt8__detail11_AnyMatcherINSt7__cxx1112regex_traitsIcEELb0ELb0ELb1EEE@Base 1.10.0
 _ZTINSt8__detail11_AnyMatcherINSt7__cxx1112regex_traitsIcEELb0ELb1ELb0EEE@Base 1.10.0
 _ZTINSt8__detail11_AnyMatcherINSt7__cxx1112regex_traitsIcEELb0ELb1ELb1EEE@Base 1.10.0
 _ZTINSt8__detail11_AnyMatcherINSt7__cxx1112regex_traitsIcEELb1ELb0ELb0EEE@Base 1.10.0
 _ZTINSt8__detail11_AnyMatcherINSt7__cxx1112regex_traitsIcEELb1ELb0ELb1EEE@Base 1.10.0
 _ZTINSt8__detail11_AnyMatcherINSt7__cxx1112regex_traitsIcEELb1ELb1ELb0EEE@Base 1.10.0
 _ZTINSt8__detail11_AnyMatcherINSt7__cxx1112regex_traitsIcEELb1ELb1ELb1EEE@Base 1.10.0
 _ZTINSt8__detail12_CharMatcherINSt7__cxx1112regex_traitsIcEELb0ELb0EEE@Base 1.10.0
 _ZTINSt8__detail12_CharMatcherINSt7__cxx1112regex_traitsIcEELb0ELb1EEE@Base 1.10.0
 _ZTINSt8__detail12_CharMatcherINSt7__cxx1112regex_traitsIcEELb1ELb0EEE@Base 1.10.0
 _ZTINSt8__detail12_CharMatcherINSt7__cxx1112regex_traitsIcEELb1ELb1EEE@Base 1.10.0
 _ZTINSt8__detail15_BracketMatcherINSt7__cxx1112regex_traitsIcEELb0ELb0EEE@Base 1.10.0
 _ZTINSt8__detail15_BracketMatcherINSt7__cxx1112regex_traitsIcEELb0ELb1EEE@Base 1.10.0
 _ZTINSt8__detail15_BracketMatcherINSt7__cxx1112regex_traitsIcEELb1ELb0EEE@Base 1.10.0
 _ZTINSt8__detail15_BracketMatcherINSt7__cxx1112regex_traitsIcEELb1ELb1EEE@Base 1.10.0
 (arch=armel)_ZTISt11_Mutex_baseILN9__gnu_cxx12_Lock_policyE1EE@Base 1.10.0
 (arch=!armel)_ZTISt11_Mutex_baseILN9__gnu_cxx12_Lock_policyE2EE@Base 1.10.0
 (arch=armel)_ZTISt15_Sp_counted_ptrIPN3qbs8Internal13ResolvedGroupELN9__gnu_cxx12_Lock_policyE1EE@Base 1.10.0
 (arch=!armel)_ZTISt15_Sp_counted_ptrIPN3qbs8Internal13ResolvedGroupELN9__gnu_cxx12_Lock_policyE2EE@Base 1.10.0
 (arch=armel)_ZTISt15_Sp_counted_ptrIPN3qbs8Internal15ResolvedProductELN9__gnu_cxx12_Lock_policyE1EE@Base 1.10.0
 (arch=!armel)_ZTISt15_Sp_counted_ptrIPN3qbs8Internal15ResolvedProductELN9__gnu_cxx12_Lock_policyE2EE@Base 1.10.0
 (arch=armel)_ZTISt15_Sp_counted_ptrIPN3qbs8Internal15ResolvedProjectELN9__gnu_cxx12_Lock_policyE1EE@Base 1.10.0
 (arch=!armel)_ZTISt15_Sp_counted_ptrIPN3qbs8Internal15ResolvedProjectELN9__gnu_cxx12_Lock_policyE2EE@Base 1.10.0
 (arch=armel)_ZTISt15_Sp_counted_ptrIPN3qbs8Internal15TopLevelProjectELN9__gnu_cxx12_Lock_policyE1EE@Base 1.10.0
 (arch=!armel)_ZTISt15_Sp_counted_ptrIPN3qbs8Internal15TopLevelProjectELN9__gnu_cxx12_Lock_policyE2EE@Base 1.10.0
 (arch=armel)_ZTISt15_Sp_counted_ptrIPN3qbs8Internal19PropertyMapInternalELN9__gnu_cxx12_Lock_policyE1EE@Base 1.10.0
 (arch=!armel)_ZTISt15_Sp_counted_ptrIPN3qbs8Internal19PropertyMapInternalELN9__gnu_cxx12_Lock_policyE2EE@Base 1.10.0
 (arch=armel)_ZTISt15_Sp_counted_ptrIPN3qbs8Internal8ItemPoolELN9__gnu_cxx12_Lock_policyE1EE@Base 1.10.0
 (arch=!armel)_ZTISt15_Sp_counted_ptrIPN3qbs8Internal8ItemPoolELN9__gnu_cxx12_Lock_policyE2EE@Base 1.10.0
 (arch=armel)_ZTISt16_Sp_counted_baseILN9__gnu_cxx12_Lock_policyE1EE@Base 1.10.0
 (arch=!armel)_ZTISt16_Sp_counted_baseILN9__gnu_cxx12_Lock_policyE2EE@Base 1.10.0
 _ZTISt19_Sp_make_shared_tag@Base 1.10.0
 (arch=armel)_ZTISt23_Sp_counted_ptr_inplaceIN3qbs8Internal16ProjectBuildDataESaIS2_ELN9__gnu_cxx12_Lock_policyE1EE@Base 1.10.0
 (arch=!armel)_ZTISt23_Sp_counted_ptr_inplaceIN3qbs8Internal16ProjectBuildDataESaIS2_ELN9__gnu_cxx12_Lock_policyE2EE@Base 1.10.0
 (arch=armel)_ZTISt23_Sp_counted_ptr_inplaceINSt7__cxx1118basic_stringstreamIcSt11char_traitsIcESaIcEEESaIS5_ELN9__gnu_cxx12_Lock_policyE1EE@Base 1.10.0
 (arch=!armel)_ZTISt23_Sp_counted_ptr_inplaceINSt7__cxx1118basic_stringstreamIcSt11char_traitsIcESaIcEEESaIS5_ELN9__gnu_cxx12_Lock_policyE2EE@Base 1.10.0
 (arch=armel)_ZTISt23_Sp_counted_ptr_inplaceINSt8__detail4_NFAINSt7__cxx1112regex_traitsIcEEEESaIS5_ELN9__gnu_cxx12_Lock_policyE1EE@Base 1.10.0
 (arch=!armel)_ZTISt23_Sp_counted_ptr_inplaceINSt8__detail4_NFAINSt7__cxx1112regex_traitsIcEEEESaIS5_ELN9__gnu_cxx12_Lock_policyE2EE@Base 1.10.0
 _ZTS11QScriptable@Base 1.2.1
 _ZTS12QScriptValue@Base 1.5.0
 _ZTSF7QStringvE@Base 1.10.0
 _ZTSFN3qbs12CodeLocationEvE@Base 1.10.0
 _ZTSMN3qbs11ProductDataEKF7QStringvE@Base 1.10.0
 _ZTSMN3qbs11ProductDataEKFNS_12CodeLocationEvE@Base 1.10.0
 _ZTSMN3qbs11ProjectDataEKF7QStringvE@Base 1.10.0
 _ZTSN3qbs10InstallJobE@Base 1.2.1
 _ZTSN3qbs11AbstractJobE@Base 1.2.1
 _ZTSN3qbs11ProductDataE@Base 1.10.0
 _ZTSN3qbs11ProjectDataE@Base 1.10.0
 _ZTSN3qbs13SettingsModelE@Base 1.4.0
 _ZTSN3qbs15SetupProjectJobE@Base 1.2.1
 _ZTSN3qbs16ProjectGeneratorE@Base 1.7.0
 _ZTSN3qbs8BuildJobE@Base 1.2.1
 _ZTSN3qbs8CleanJobE@Base 1.2.1
 _ZTSN3qbs8ILogSinkE@Base 1.2.1
 _ZTSN3qbs8Internal12ScriptEngineE@Base 1.10.0
 _ZTSN3qbs8Internal13CycleDetectorE@Base 1.10.0
 _ZTSN3qbs8Internal13ResolvedGroupE@Base 1.10.0
 _ZTSN3qbs8Internal15ResolvedProductE@Base 1.10.0
 _ZTSN3qbs8Internal15ResolvedProjectE@Base 1.10.0
 _ZTSN3qbs8Internal15TopLevelProjectE@Base 1.10.0
 _ZTSN3qbs8Internal16IdentifierSearchE@Base 1.10.0
 _ZTSN3qbs8Internal16ProductBuildDataE@Base 1.10.0
 _ZTSN3qbs8Internal16ProjectBuildDataE@Base 1.10.0
 _ZTSN3qbs8Internal19PropertyMapInternalE@Base 1.10.0
 _ZTSN3qbs8Internal8ArtifactE@Base 1.10.0
 _ZTSN3qbs8Internal9EvaluatorE@Base 1.10.0
 _ZTSN3qbs9ErrorInfoE@Base 1.2.1
 _ZTSN8QbsQmlJS3AST7VisitorE@Base 1.10.0
 (arch=armel)_ZTSN9__gnu_cxx24__concurrence_lock_errorE@Base 1.10.0
 (arch=armel)_ZTSN9__gnu_cxx26__concurrence_unlock_errorE@Base 1.10.0
 (arch=armel)_ZTSN9__gnu_cxx7__mutexE@Base 1.10.0
 _ZTSNSt8__detail11_AnyMatcherINSt7__cxx1112regex_traitsIcEELb0ELb0ELb0EEE@Base 1.10.0
 _ZTSNSt8__detail11_AnyMatcherINSt7__cxx1112regex_traitsIcEELb0ELb0ELb1EEE@Base 1.10.0
 _ZTSNSt8__detail11_AnyMatcherINSt7__cxx1112regex_traitsIcEELb0ELb1ELb0EEE@Base 1.10.0
 _ZTSNSt8__detail11_AnyMatcherINSt7__cxx1112regex_traitsIcEELb0ELb1ELb1EEE@Base 1.10.0
 _ZTSNSt8__detail11_AnyMatcherINSt7__cxx1112regex_traitsIcEELb1ELb0ELb0EEE@Base 1.10.0
 _ZTSNSt8__detail11_AnyMatcherINSt7__cxx1112regex_traitsIcEELb1ELb0ELb1EEE@Base 1.10.0
 _ZTSNSt8__detail11_AnyMatcherINSt7__cxx1112regex_traitsIcEELb1ELb1ELb0EEE@Base 1.10.0
 _ZTSNSt8__detail11_AnyMatcherINSt7__cxx1112regex_traitsIcEELb1ELb1ELb1EEE@Base 1.10.0
 _ZTSNSt8__detail12_CharMatcherINSt7__cxx1112regex_traitsIcEELb0ELb0EEE@Base 1.10.0
 _ZTSNSt8__detail12_CharMatcherINSt7__cxx1112regex_traitsIcEELb0ELb1EEE@Base 1.10.0
 _ZTSNSt8__detail12_CharMatcherINSt7__cxx1112regex_traitsIcEELb1ELb0EEE@Base 1.10.0
 _ZTSNSt8__detail12_CharMatcherINSt7__cxx1112regex_traitsIcEELb1ELb1EEE@Base 1.10.0
 _ZTSNSt8__detail15_BracketMatcherINSt7__cxx1112regex_traitsIcEELb0ELb0EEE@Base 1.10.0
 _ZTSNSt8__detail15_BracketMatcherINSt7__cxx1112regex_traitsIcEELb0ELb1EEE@Base 1.10.0
 _ZTSNSt8__detail15_BracketMatcherINSt7__cxx1112regex_traitsIcEELb1ELb0EEE@Base 1.10.0
 _ZTSNSt8__detail15_BracketMatcherINSt7__cxx1112regex_traitsIcEELb1ELb1EEE@Base 1.10.0
 (arch=armel)_ZTSSt11_Mutex_baseILN9__gnu_cxx12_Lock_policyE1EE@Base 1.10.0
 (arch=!armel)_ZTSSt11_Mutex_baseILN9__gnu_cxx12_Lock_policyE2EE@Base 1.10.0
 (arch=armel)_ZTSSt15_Sp_counted_ptrIPN3qbs8Internal13ResolvedGroupELN9__gnu_cxx12_Lock_policyE1EE@Base 1.10.0
 (arch=!armel)_ZTSSt15_Sp_counted_ptrIPN3qbs8Internal13ResolvedGroupELN9__gnu_cxx12_Lock_policyE2EE@Base 1.10.0
 (arch=armel)_ZTSSt15_Sp_counted_ptrIPN3qbs8Internal15ResolvedProductELN9__gnu_cxx12_Lock_policyE1EE@Base 1.10.0
 (arch=!armel)_ZTSSt15_Sp_counted_ptrIPN3qbs8Internal15ResolvedProductELN9__gnu_cxx12_Lock_policyE2EE@Base 1.10.0
 (arch=armel)_ZTSSt15_Sp_counted_ptrIPN3qbs8Internal15ResolvedProjectELN9__gnu_cxx12_Lock_policyE1EE@Base 1.10.0
 (arch=!armel)_ZTSSt15_Sp_counted_ptrIPN3qbs8Internal15ResolvedProjectELN9__gnu_cxx12_Lock_policyE2EE@Base 1.10.0
 (arch=armel)_ZTSSt15_Sp_counted_ptrIPN3qbs8Internal15TopLevelProjectELN9__gnu_cxx12_Lock_policyE1EE@Base 1.10.0
 (arch=!armel)_ZTSSt15_Sp_counted_ptrIPN3qbs8Internal15TopLevelProjectELN9__gnu_cxx12_Lock_policyE2EE@Base 1.10.0
 (arch=armel)_ZTSSt15_Sp_counted_ptrIPN3qbs8Internal19PropertyMapInternalELN9__gnu_cxx12_Lock_policyE1EE@Base 1.10.0
 (arch=!armel)_ZTSSt15_Sp_counted_ptrIPN3qbs8Internal19PropertyMapInternalELN9__gnu_cxx12_Lock_policyE2EE@Base 1.10.0
 (arch=armel)_ZTSSt15_Sp_counted_ptrIPN3qbs8Internal8ItemPoolELN9__gnu_cxx12_Lock_policyE1EE@Base 1.10.0
 (arch=!armel)_ZTSSt15_Sp_counted_ptrIPN3qbs8Internal8ItemPoolELN9__gnu_cxx12_Lock_policyE2EE@Base 1.10.0
 (arch=armel)_ZTSSt16_Sp_counted_baseILN9__gnu_cxx12_Lock_policyE1EE@Base 1.10.0
 (arch=!armel)_ZTSSt16_Sp_counted_baseILN9__gnu_cxx12_Lock_policyE2EE@Base 1.10.0
 _ZTSSt19_Sp_make_shared_tag@Base 1.10.0
 (arch=armel)_ZTSSt23_Sp_counted_ptr_inplaceIN3qbs8Internal16ProjectBuildDataESaIS2_ELN9__gnu_cxx12_Lock_policyE1EE@Base 1.10.0
 (arch=!armel)_ZTSSt23_Sp_counted_ptr_inplaceIN3qbs8Internal16ProjectBuildDataESaIS2_ELN9__gnu_cxx12_Lock_policyE2EE@Base 1.10.0
 (arch=armel)_ZTSSt23_Sp_counted_ptr_inplaceINSt7__cxx1118basic_stringstreamIcSt11char_traitsIcESaIcEEESaIS5_ELN9__gnu_cxx12_Lock_policyE1EE@Base 1.10.0
 (arch=!armel)_ZTSSt23_Sp_counted_ptr_inplaceINSt7__cxx1118basic_stringstreamIcSt11char_traitsIcESaIcEEESaIS5_ELN9__gnu_cxx12_Lock_policyE2EE@Base 1.10.0
 (arch=armel)_ZTSSt23_Sp_counted_ptr_inplaceINSt8__detail4_NFAINSt7__cxx1112regex_traitsIcEEEESaIS5_ELN9__gnu_cxx12_Lock_policyE1EE@Base 1.10.0
 (arch=!armel)_ZTSSt23_Sp_counted_ptr_inplaceINSt8__detail4_NFAINSt7__cxx1112regex_traitsIcEEEESaIS5_ELN9__gnu_cxx12_Lock_policyE2EE@Base 1.10.0
 _ZTTN3qbs8Internal8ArtifactE@Base 1.10.0
 _ZTVN3qbs10InstallJobE@Base 1.2.1
 _ZTVN3qbs11AbstractJobE@Base 1.2.1
 _ZTVN3qbs13SettingsModelE@Base 1.4.0
 _ZTVN3qbs15SetupProjectJobE@Base 1.2.1
 _ZTVN3qbs16ProjectGeneratorE@Base 1.7.0
 _ZTVN3qbs8BuildJobE@Base 1.2.1
 _ZTVN3qbs8CleanJobE@Base 1.2.1
 _ZTVN3qbs8ILogSinkE@Base 1.2.1
 _ZTVN3qbs8Internal12ScriptEngineE@Base 1.10.0
 _ZTVN3qbs8Internal13CycleDetectorE@Base 1.10.0
 _ZTVN3qbs8Internal13ResolvedGroupE@Base 1.10.0
 _ZTVN3qbs8Internal15ResolvedProductE@Base 1.10.0
 _ZTVN3qbs8Internal15ResolvedProjectE@Base 1.10.0
 _ZTVN3qbs8Internal15TopLevelProjectE@Base 1.10.0
 _ZTVN3qbs8Internal16IdentifierSearchE@Base 1.10.0
 _ZTVN3qbs8Internal16ProductBuildDataE@Base 1.10.0
 _ZTVN3qbs8Internal16ProjectBuildDataE@Base 1.10.0
 _ZTVN3qbs8Internal19PropertyMapInternalE@Base 1.10.0
 _ZTVN3qbs8Internal8ArtifactE@Base 1.10.0
 _ZTVN3qbs8Internal9EvaluatorE@Base 1.10.0
 _ZTVN8QbsQmlJS3AST7VisitorE@Base 1.10.0
 (arch=armel)_ZTVN9__gnu_cxx24__concurrence_lock_errorE@Base 1.10.0
 (arch=armel)_ZTVN9__gnu_cxx26__concurrence_unlock_errorE@Base 1.10.0
 (arch=armel)_ZTVSt15_Sp_counted_ptrIPN3qbs8Internal13ResolvedGroupELN9__gnu_cxx12_Lock_policyE1EE@Base 1.10.0
 (arch=!armel)_ZTVSt15_Sp_counted_ptrIPN3qbs8Internal13ResolvedGroupELN9__gnu_cxx12_Lock_policyE2EE@Base 1.10.0
 (arch=armel)_ZTVSt15_Sp_counted_ptrIPN3qbs8Internal15ResolvedProductELN9__gnu_cxx12_Lock_policyE1EE@Base 1.10.0
 (arch=!armel)_ZTVSt15_Sp_counted_ptrIPN3qbs8Internal15ResolvedProductELN9__gnu_cxx12_Lock_policyE2EE@Base 1.10.0
 (arch=armel)_ZTVSt15_Sp_counted_ptrIPN3qbs8Internal15ResolvedProjectELN9__gnu_cxx12_Lock_policyE1EE@Base 1.10.0
 (arch=!armel)_ZTVSt15_Sp_counted_ptrIPN3qbs8Internal15ResolvedProjectELN9__gnu_cxx12_Lock_policyE2EE@Base 1.10.0
 (arch=armel)_ZTVSt15_Sp_counted_ptrIPN3qbs8Internal15TopLevelProjectELN9__gnu_cxx12_Lock_policyE1EE@Base 1.10.0
 (arch=!armel)_ZTVSt15_Sp_counted_ptrIPN3qbs8Internal15TopLevelProjectELN9__gnu_cxx12_Lock_policyE2EE@Base 1.10.0
 (arch=armel)_ZTVSt15_Sp_counted_ptrIPN3qbs8Internal19PropertyMapInternalELN9__gnu_cxx12_Lock_policyE1EE@Base 1.10.0
 (arch=!armel)_ZTVSt15_Sp_counted_ptrIPN3qbs8Internal19PropertyMapInternalELN9__gnu_cxx12_Lock_policyE2EE@Base 1.10.0
 (arch=armel)_ZTVSt15_Sp_counted_ptrIPN3qbs8Internal8ItemPoolELN9__gnu_cxx12_Lock_policyE1EE@Base 1.10.0
 (arch=!armel)_ZTVSt15_Sp_counted_ptrIPN3qbs8Internal8ItemPoolELN9__gnu_cxx12_Lock_policyE2EE@Base 1.10.0
 (arch=armel)_ZTVSt23_Sp_counted_ptr_inplaceIN3qbs8Internal16ProjectBuildDataESaIS2_ELN9__gnu_cxx12_Lock_policyE1EE@Base 1.10.0
 (arch=!armel)_ZTVSt23_Sp_counted_ptr_inplaceIN3qbs8Internal16ProjectBuildDataESaIS2_ELN9__gnu_cxx12_Lock_policyE2EE@Base 1.10.0
 (arch=armel)_ZTVSt23_Sp_counted_ptr_inplaceINSt7__cxx1118basic_stringstreamIcSt11char_traitsIcESaIcEEESaIS5_ELN9__gnu_cxx12_Lock_policyE1EE@Base 1.10.0
 (arch=!armel)_ZTVSt23_Sp_counted_ptr_inplaceINSt7__cxx1118basic_stringstreamIcSt11char_traitsIcESaIcEEESaIS5_ELN9__gnu_cxx12_Lock_policyE2EE@Base 1.10.0
 (arch=armel)_ZTVSt23_Sp_counted_ptr_inplaceINSt8__detail4_NFAINSt7__cxx1112regex_traitsIcEEEESaIS5_ELN9__gnu_cxx12_Lock_policyE1EE@Base 1.10.0
 (arch=!armel)_ZTVSt23_Sp_counted_ptr_inplaceINSt8__detail4_NFAINSt7__cxx1112regex_traitsIcEEEESaIS5_ELN9__gnu_cxx12_Lock_policyE2EE@Base 1.10.0
 (optional=templinst)_ZZNKSt7__cxx1112regex_traitsIcE16lookup_classnameIPKcEENS1_10_RegexMaskET_S6_bE12__classnames@Base 1.10.0
 (optional=templinst)_ZZNKSt7__cxx1112regex_traitsIcE18lookup_collatenameIPKcEENS_12basic_stringIcSt11char_traitsIcESaIcEEET_SA_E14__collatenames@Base 1.10.0
 (optional=templinst)_ZZNKSt8__detail11_AnyMatcherINSt7__cxx1112regex_traitsIcEELb0ELb0ELb0EEclEcE5__nul@Base 1.10.0
 (optional=templinst)_ZZNKSt8__detail11_AnyMatcherINSt7__cxx1112regex_traitsIcEELb0ELb0ELb1EEclEcE5__nul@Base 1.10.0
 (optional=templinst)_ZZNKSt8__detail11_AnyMatcherINSt7__cxx1112regex_traitsIcEELb0ELb1ELb0EEclEcE5__nul@Base 1.10.0
 (optional=templinst)_ZZNKSt8__detail11_AnyMatcherINSt7__cxx1112regex_traitsIcEELb0ELb1ELb1EEclEcE5__nul@Base 1.10.0
 (optional=templinst)_ZZNKSt8__detail9_ExecutorIN9__gnu_cxx17__normal_iteratorIPKcNSt7__cxx1112basic_stringIcSt11char_traitsIcESaIcEEEEESaINS5_9sub_matchISB_EEENS5_12regex_traitsIcEELb0EE10_M_is_wordEcE3__s@Base 1.10.0
 (optional=templinst)_ZZNKSt8__detail9_ExecutorIN9__gnu_cxx17__normal_iteratorIPKcNSt7__cxx1112basic_stringIcSt11char_traitsIcESaIcEEEEESaINS5_9sub_matchISB_EEENS5_12regex_traitsIcEELb1EE10_M_is_wordEcE3__s@Base 1.10.0
 (c++)"non-virtual thunk to qbs::Internal::Artifact::accept(qbs::Internal::BuildGraphVisitor*)@Base" 1.10.0
 (c++)"non-virtual thunk to qbs::Internal::Artifact::load(qbs::Internal::PersistentPool&)@Base" 1.10.0
 (c++)"non-virtual thunk to qbs::Internal::Artifact::onChildDisconnected(qbs::Internal::BuildGraphNode*)@Base" 1.10.0
 (c++)"non-virtual thunk to qbs::Internal::Artifact::store(qbs::Internal::PersistentPool&) const@Base" 1.10.0
 (c++)"non-virtual thunk to qbs::Internal::Artifact::toString() const@Base" 1.10.0
 (c++)"non-virtual thunk to qbs::Internal::Artifact::~Artifact()@Base" 1.10.0
 (c++)"virtual thunk to qbs::Internal::Artifact::load(qbs::Internal::PersistentPool&)@Base" 1.10.0
 (c++)"virtual thunk to qbs::Internal::Artifact::store(qbs::Internal::PersistentPool&) const@Base" 1.10.0
 (c++)"virtual thunk to qbs::Internal::Artifact::~Artifact()@Base" 1.10.0
